

HI-TECH Software PIC PRO Macro Assembler V9.83 build 10920 
                                                                                               Sun Apr 21 15:43:54 2019

HI-TECH Software Omniscient Code Generator (PRO mode) build 10920
     1                           	processor	SC8P1713S
     2                           	opt	pw 120
     3                           	opt	pm
     4                           	psect	stringtext,global,reloc=256,class=STRCODE,delta=2
     5                           	psect	cinit,global,class=CODE,delta=2
     6                           	psect	bitbssCOMMON,global,bit,class=COMMON,space=1,delta=1
     7                           	psect	bssCOMMON,global,class=COMMON,space=1,delta=1
     8                           	psect	bssBANK0,global,class=BANK0,space=1,delta=1
     9                           	psect	clrtext,global,class=CODE,delta=2
    10                           	psect	cstackCOMMON,global,class=COMMON,space=1,delta=1
    11                           	psect	cstackBANK0,global,class=BANK0,space=1,delta=1
    12                           	psect	maintext,global,class=CODE,delta=2
    13                           	psect	text437,local,class=CODE,delta=2
    14                           	psect	text438,local,class=CODE,delta=2
    15                           	psect	text439,local,class=CODE,delta=2
    16                           	psect	text440,local,class=CODE,delta=2
    17                           	psect	text441,local,class=CODE,delta=2
    18                           	psect	text442,local,class=CODE,delta=2
    19                           	psect	swtext1,local,class=CONST,delta=2
    20                           	psect	text443,local,class=CODE,delta=2
    21                           	psect	text444,local,class=CODE,delta=2
    22                           	psect	text445,local,class=CODE,delta=2
    23                           	psect	text446,local,class=CODE,delta=2
    24                           	psect	text447,local,class=CODE,delta=2
    25                           	psect	text448,local,class=CODE,delta=2
    26                           	psect	text449,local,class=CODE,delta=2
    27                           	psect	text450,local,class=CODE,delta=2
    28                           	psect	text451,local,class=CODE,delta=2
    29                           	psect	text452,local,class=CODE,delta=2
    30                           	psect	text453,local,class=CODE,delta=2
    31                           	psect	text454,local,class=CODE,delta=2
    32                           	psect	intentry,global,class=CODE,delta=2
    33                           	psect	text455,local,class=CODE,delta=2
    34                           	psect	text456,local,class=CODE,delta=2
    35                           	psect	text457,local,class=CODE,delta=2
    36                           	psect	text458,local,class=CODE,delta=2
    37                           	psect	pa_nodes,global,class=CODE,delta=2
    38                           	dabs	1,0x7E,2
    39  000A                     
    40                           	psect	stringtext
    41  0100                     __pstringtext:	
    42  0100                     stringtab:	
    43                           ;	global	stringtab,__stringbase
    44                           
    45                           
    46                           ;	String table - string pointers are 2 bytes each
    47  0100  1BFF               	btfsc	btemp+1,7
    48  0101  290A               	ljmp	stringcode
    49  0102  1383               	bcf	3,7
    50  0103  187F               	btfsc	btemp+1,0
    51  0104  1783               	bsf	3,7
    52  0105  0800               	movf	0,w
    53  0106  0A84               	incf	4,f
    54  0107  1903               	skipnz
    55  0108  0AFF               	incf	btemp+1,f
    56  0109  0008               	return
    57  010A                     stringcode:	
    58  010A  087F               	movf	btemp+1,w
    59  010B  397F               	andlw	127
    60  010C  008A               	movwf	10
    61  010D  0804               	movf	4,w
    62  010E  0A84               	incf	4,f
    63  010F  1903               	skipnz
    64  0110  0AFF               	incf	btemp+1,f
    65  0111  0082               	movwf	2
    66  0112                     __stringbase:	
    67  0112                     _Temptab:	
    68  0112  341D               	retlw	29
    69  0113  3400               	retlw	0
    70  0114  341E               	retlw	30
    71  0115  3400               	retlw	0
    72  0116  3420               	retlw	32
    73  0117  3400               	retlw	0
    74  0118  3422               	retlw	34
    75  0119  3400               	retlw	0
    76  011A  3423               	retlw	35
    77  011B  3400               	retlw	0
    78  011C  3425               	retlw	37
    79  011D  3400               	retlw	0
    80  011E  3427               	retlw	39
    81  011F  3400               	retlw	0
    82  0120  3429               	retlw	41
    83  0121  3400               	retlw	0
    84  0122  342B               	retlw	43
    85  0123  3400               	retlw	0
    86  0124  342D               	retlw	45
    87  0125  3400               	retlw	0
    88  0126  342F               	retlw	47
    89  0127  3400               	retlw	0
    90  0128  3431               	retlw	49
    91  0129  3400               	retlw	0
    92  012A  3434               	retlw	52
    93  012B  3400               	retlw	0
    94  012C  3436               	retlw	54
    95  012D  3400               	retlw	0
    96  012E  3439               	retlw	57
    97  012F  3400               	retlw	0
    98  0130  343B               	retlw	59
    99  0131  3400               	retlw	0
   100  0132  343E               	retlw	62
   101  0133  3400               	retlw	0
   102  0134  3441               	retlw	65
   103  0135  3400               	retlw	0
   104  0136  3444               	retlw	68
   105  0137  3400               	retlw	0
   106  0138  3447               	retlw	71
   107  0139  3400               	retlw	0
   108  013A  344A               	retlw	74
   109  013B  3400               	retlw	0
   110  013C  344D               	retlw	77
   111  013D  3400               	retlw	0
   112  013E  3451               	retlw	81
   113  013F  3400               	retlw	0
   114  0140  3454               	retlw	84
   115  0141  3400               	retlw	0
   116  0142  3458               	retlw	88
   117  0143  3400               	retlw	0
   118  0144  345B               	retlw	91
   119  0145  3400               	retlw	0
   120  0146  345F               	retlw	95
   121  0147  3400               	retlw	0
   122  0148  3463               	retlw	99
   123  0149  3400               	retlw	0
   124  014A  3467               	retlw	103
   125  014B  3400               	retlw	0
   126  014C  346B               	retlw	107
   127  014D  3400               	retlw	0
   128  014E  346F               	retlw	111
   129  014F  3400               	retlw	0
   130  0150  3473               	retlw	115
   131  0151  3400               	retlw	0
   132  0152  3478               	retlw	120
   133  0153  3400               	retlw	0
   134  0154  347C               	retlw	124
   135  0155  3400               	retlw	0
   136  0156  3481               	retlw	129
   137  0157  3400               	retlw	0
   138  0158  3485               	retlw	133
   139  0159  3400               	retlw	0
   140  015A  348A               	retlw	138
   141  015B  3400               	retlw	0
   142  015C  348F               	retlw	143
   143  015D  3400               	retlw	0
   144  015E  3494               	retlw	148
   145  015F  3400               	retlw	0
   146  0160  349A               	retlw	154
   147  0161  3400               	retlw	0
   148  0162  349F               	retlw	159
   149  0163  3400               	retlw	0
   150  0164  34A4               	retlw	164
   151  0165  3400               	retlw	0
   152  0166  34AA               	retlw	170
   153  0167  3400               	retlw	0
   154  0168  34B0               	retlw	176
   155  0169  3400               	retlw	0
   156  016A  34B5               	retlw	181
   157  016B  3400               	retlw	0
   158  016C  34BB               	retlw	187
   159  016D  3400               	retlw	0
   160  016E  34C1               	retlw	193
   161  016F  3400               	retlw	0
   162  0170  34C8               	retlw	200
   163  0171  3400               	retlw	0
   164  0172  34CE               	retlw	206
   165  0173  3400               	retlw	0
   166  0174  34D4               	retlw	212
   167  0175  3400               	retlw	0
   168  0176  34DB               	retlw	219
   169  0177  3400               	retlw	0
   170  0178  34E1               	retlw	225
   171  0179  3400               	retlw	0
   172  017A  34E8               	retlw	232
   173  017B  3400               	retlw	0
   174  017C  34EF               	retlw	239
   175  017D  3400               	retlw	0
   176  017E  34F6               	retlw	246
   177  017F  3400               	retlw	0
   178  0180  34FD               	retlw	253
   179  0181  3400               	retlw	0
   180  0182  3404               	retlw	4
   181  0183  3401               	retlw	1
   182  0184  340B               	retlw	11
   183  0185  3401               	retlw	1
   184  0186  3412               	retlw	18
   185  0187  3401               	retlw	1
   186  0188  341A               	retlw	26
   187  0189  3401               	retlw	1
   188  018A  3421               	retlw	33
   189  018B  3401               	retlw	1
   190  018C  3428               	retlw	40
   191  018D  3401               	retlw	1
   192  018E  3430               	retlw	48
   193  018F  3401               	retlw	1
   194  0190  3438               	retlw	56
   195  0191  3401               	retlw	1
   196  0192  343F               	retlw	63
   197  0193  3401               	retlw	1
   198  0194  3447               	retlw	71
   199  0195  3401               	retlw	1
   200  0196  344F               	retlw	79
   201  0197  3401               	retlw	1
   202  0198  3457               	retlw	87
   203  0199  3401               	retlw	1
   204  019A  345F               	retlw	95
   205  019B  3401               	retlw	1
   206  019C  3467               	retlw	103
   207  019D  3401               	retlw	1
   208  019E  346F               	retlw	111
   209  019F  3401               	retlw	1
   210  01A0  3477               	retlw	119
   211  01A1  3401               	retlw	1
   212  01A2  347F               	retlw	127
   213  01A3  3401               	retlw	1
   214  01A4  3487               	retlw	135
   215  01A5  3401               	retlw	1
   216  01A6  348F               	retlw	143
   217  01A7  3401               	retlw	1
   218  01A8  3498               	retlw	152
   219  01A9  3401               	retlw	1
   220  01AA  34A0               	retlw	160
   221  01AB  3401               	retlw	1
   222  01AC  34A8               	retlw	168
   223  01AD  3401               	retlw	1
   224  01AE  34B0               	retlw	176
   225  01AF  3401               	retlw	1
   226  01B0  34B8               	retlw	184
   227  01B1  3401               	retlw	1
   228  01B2  34C1               	retlw	193
   229  01B3  3401               	retlw	1
   230  01B4  34C9               	retlw	201
   231  01B5  3401               	retlw	1
   232  01B6  34D1               	retlw	209
   233  01B7  3401               	retlw	1
   234  01B8  34D9               	retlw	217
   235  01B9  3401               	retlw	1
   236  01BA  34E1               	retlw	225
   237  01BB  3401               	retlw	1
   238  01BC  34EA               	retlw	234
   239  01BD  3401               	retlw	1
   240  01BE  34F2               	retlw	242
   241  01BF  3401               	retlw	1
   242  01C0  34FA               	retlw	250
   243  01C1  3401               	retlw	1
   244  01C2  3402               	retlw	2
   245  01C3  3402               	retlw	2
   246  01C4  340A               	retlw	10
   247  01C5  3402               	retlw	2
   248  01C6  3412               	retlw	18
   249  01C7  3402               	retlw	2
   250  01C8  341A               	retlw	26
   251  01C9  3402               	retlw	2
   252  01CA  3422               	retlw	34
   253  01CB  3402               	retlw	2
   254  01CC  3429               	retlw	41
   255  01CD  3402               	retlw	2
   256  01CE  3431               	retlw	49
   257  01CF  3402               	retlw	2
   258  01D0  3439               	retlw	57
   259  01D1  3402               	retlw	2
   260  01D2  3440               	retlw	64
   261  01D3  3402               	retlw	2
   262  01D4  3448               	retlw	72
   263  01D5  3402               	retlw	2
   264  01D6  3450               	retlw	80
   265  01D7  3402               	retlw	2
   266  01D8  3457               	retlw	87
   267  01D9  3402               	retlw	2
   268  01DA  345E               	retlw	94
   269  01DB  3402               	retlw	2
   270  01DC  3466               	retlw	102
   271  01DD  3402               	retlw	2
   272  01DE  346D               	retlw	109
   273  01DF  3402               	retlw	2
   274  01E0  3474               	retlw	116
   275  01E1  3402               	retlw	2
   276  01E2  347B               	retlw	123
   277  01E3  3402               	retlw	2
   278  01E4  3482               	retlw	130
   279  01E5  3402               	retlw	2
   280  01E6  3489               	retlw	137
   281  01E7  3402               	retlw	2
   282  01E8  3490               	retlw	144
   283  01E9  3402               	retlw	2
   284  01EA  3496               	retlw	150
   285  01EB  3402               	retlw	2
   286  01EC  349D               	retlw	157
   287  01ED  3402               	retlw	2
   288  01EE  34A4               	retlw	164
   289  01EF  3402               	retlw	2
   290  01F0  34AA               	retlw	170
   291  01F1  3402               	retlw	2
   292  01F2  34B0               	retlw	176
   293  01F3  3402               	retlw	2
   294  01F4  34B7               	retlw	183
   295  01F5  3402               	retlw	2
   296  01F6  34BD               	retlw	189
   297  01F7  3402               	retlw	2
   298  01F8  34C3               	retlw	195
   299  01F9  3402               	retlw	2
   300  01FA  34C9               	retlw	201
   301  01FB  3402               	retlw	2
   302  01FC  34CF               	retlw	207
   303  01FD  3402               	retlw	2
   304  01FE  34D5               	retlw	213
   305  01FF  3402               	retlw	2
   306  0200  34DB               	retlw	219
   307  0201  3402               	retlw	2
   308  0202  34E0               	retlw	224
   309  0203  3402               	retlw	2
   310  0204  34E6               	retlw	230
   311  0205  3402               	retlw	2
   312  0206  34EB               	retlw	235
   313  0207  3402               	retlw	2
   314  0208  34F1               	retlw	241
   315  0209  3402               	retlw	2
   316  020A  34F6               	retlw	246
   317  020B  3402               	retlw	2
   318  020C  34FB               	retlw	251
   319  020D  3402               	retlw	2
   320  020E  3400               	retlw	0
   321  020F  3403               	retlw	3
   322  0210  3405               	retlw	5
   323  0211  3403               	retlw	3
   324  0212  340A               	retlw	10
   325  0213  3403               	retlw	3
   326  0214  340F               	retlw	15
   327  0215  3403               	retlw	3
   328  0216  3414               	retlw	20
   329  0217  3403               	retlw	3
   330  0218  3418               	retlw	24
   331  0219  3403               	retlw	3
   332  021A  341D               	retlw	29
   333  021B  3403               	retlw	3
   334  021C  3422               	retlw	34
   335  021D  3403               	retlw	3
   336  021E  3426               	retlw	38
   337  021F  3403               	retlw	3
   338  0220  342A               	retlw	42
   339  0221  3403               	retlw	3
   340  0222  342F               	retlw	47
   341  0223  3403               	retlw	3
   342  0224  3433               	retlw	51
   343  0225  3403               	retlw	3
   344  0226  3437               	retlw	55
   345  0227  3403               	retlw	3
   346  0228  343B               	retlw	59
   347  0229  3403               	retlw	3
   348  022A  343F               	retlw	63
   349  022B  3403               	retlw	3
   350  022C  3443               	retlw	67
   351  022D  3403               	retlw	3
   352  022E  3446               	retlw	70
   353  022F  3403               	retlw	3
   354  0230  344A               	retlw	74
   355  0231  3403               	retlw	3
   356  0232  344E               	retlw	78
   357  0233  3403               	retlw	3
   358  0234  3451               	retlw	81
   359  0235  3403               	retlw	3
   360  0236  3455               	retlw	85
   361  0237  3403               	retlw	3
   362  0238  3458               	retlw	88
   363  0239  3403               	retlw	3
   364  023A  345C               	retlw	92
   365  023B  3403               	retlw	3
   366  023C  345F               	retlw	95
   367  023D  3403               	retlw	3
   368  023E  3462               	retlw	98
   369  023F  3403               	retlw	3
   370  0240  3465               	retlw	101
   371  0241  3403               	retlw	3
   372  0242  3468               	retlw	104
   373  0243  3403               	retlw	3
   374  0244  346B               	retlw	107
   375  0245  3403               	retlw	3
   376  0246  346E               	retlw	110
   377  0247  3403               	retlw	3
   378  0248  3471               	retlw	113
   379  0249  3403               	retlw	3
   380  024A  3474               	retlw	116
   381  024B  3403               	retlw	3
   382  024C  3477               	retlw	119
   383  024D  3403               	retlw	3
   384  024E  3479               	retlw	121
   385  024F  3403               	retlw	3
   386  0250  347C               	retlw	124
   387  0251  3403               	retlw	3
   388  0252  347F               	retlw	127
   389  0253  3403               	retlw	3
   390  0254  3481               	retlw	129
   391  0255  3403               	retlw	3
   392  0256  3484               	retlw	132
   393  0257  3403               	retlw	3
   394  0258  3486               	retlw	134
   395  0259  3403               	retlw	3
   396  025A  3489               	retlw	137
   397  025B  3403               	retlw	3
   398  025C  348B               	retlw	139
   399  025D  3403               	retlw	3
   400  025E  348D               	retlw	141
   401  025F  3403               	retlw	3
   402  0260  3490               	retlw	144
   403  0261  3403               	retlw	3
   404  0262  3492               	retlw	146
   405  0263  3403               	retlw	3
   406  0264  3494               	retlw	148
   407  0265  3403               	retlw	3
   408  0266  3496               	retlw	150
   409  0267  3403               	retlw	3
   410  0268  3498               	retlw	152
   411  0269  3403               	retlw	3
   412  026A  349A               	retlw	154
   413  026B  3403               	retlw	3
   414  026C  349C               	retlw	156
   415  026D  3403               	retlw	3
   416  026E  349E               	retlw	158
   417  026F  3403               	retlw	3
   418  0270  34A0               	retlw	160
   419  0271  3403               	retlw	3
   420  0272  34A2               	retlw	162
   421  0273  3403               	retlw	3
   422  0274  34A4               	retlw	164
   423  0275  3403               	retlw	3
   424  0276  34A5               	retlw	165
   425  0277  3403               	retlw	3
   426  0278  34A7               	retlw	167
   427  0279  3403               	retlw	3
   428  027A  34A9               	retlw	169
   429  027B  3403               	retlw	3
   430  027C  34AA               	retlw	170
   431  027D  3403               	retlw	3
   432  027E  34AC               	retlw	172
   433  027F  3403               	retlw	3
   434  0280  34AE               	retlw	174
   435  0281  3403               	retlw	3
   436  0282  34AF               	retlw	175
   437  0283  3403               	retlw	3
   438  0284  34B1               	retlw	177
   439  0285  3403               	retlw	3
   440  0286  34B2               	retlw	178
   441  0287  3403               	retlw	3
   442  0288  34B4               	retlw	180
   443  0289  3403               	retlw	3
   444  028A  34B5               	retlw	181
   445  028B  3403               	retlw	3
   446  028C  34B6               	retlw	182
   447  028D  3403               	retlw	3
   448  028E  34B8               	retlw	184
   449  028F  3403               	retlw	3
   450  0290  34B9               	retlw	185
   451  0291  3403               	retlw	3
   452  0292  34BB               	retlw	187
   453  0293  3403               	retlw	3
   454  0294  34BC               	retlw	188
   455  0295  3403               	retlw	3
   456  0296  34BD               	retlw	189
   457  0297  3403               	retlw	3
   458  0298  34BE               	retlw	190
   459  0299  3403               	retlw	3
   460  029A  34C0               	retlw	192
   461  029B  3403               	retlw	3
   462  029C  34C1               	retlw	193
   463  029D  3403               	retlw	3
   464  029E  34C2               	retlw	194
   465  029F  3403               	retlw	3
   466  02A0  34C3               	retlw	195
   467  02A1  3403               	retlw	3
   468  02A2  34C4               	retlw	196
   469  02A3  3403               	retlw	3
   470  02A4  34C5               	retlw	197
   471  02A5  3403               	retlw	3
   472  02A6  34C6               	retlw	198
   473  02A7  3403               	retlw	3
   474  02A8  34C7               	retlw	199
   475  02A9  3403               	retlw	3
   476  02AA  34C8               	retlw	200
   477  02AB  3403               	retlw	3
   478  02AC  34C9               	retlw	201
   479  02AD  3403               	retlw	3
   480  02AE  34CA               	retlw	202
   481  02AF  3403               	retlw	3
   482  02B0  34CB               	retlw	203
   483  02B1  3403               	retlw	3
   484  02B2  34CC               	retlw	204
   485  02B3  3403               	retlw	3
   486  02B4  34CD               	retlw	205
   487  02B5  3403               	retlw	3
   488  02B6  34CE               	retlw	206
   489  02B7  3403               	retlw	3
   490  02B8  34CF               	retlw	207
   491  02B9  3403               	retlw	3
   492  02BA  34D0               	retlw	208
   493  02BB  3403               	retlw	3
   494  02BC  34D1               	retlw	209
   495  02BD  3403               	retlw	3
   496  02BE  34D1               	retlw	209
   497  02BF  3403               	retlw	3
   498  02C0  34D2               	retlw	210
   499  02C1  3403               	retlw	3
   500  02C2  34D3               	retlw	211
   501  02C3  3403               	retlw	3
   502  02C4  34D4               	retlw	212
   503  02C5  3403               	retlw	3
   504  02C6  34D5               	retlw	213
   505  02C7  3403               	retlw	3
   506  02C8  34D5               	retlw	213
   507  02C9  3403               	retlw	3
   508  02CA  34D6               	retlw	214
   509  02CB  3403               	retlw	3
   510  02CC  34D7               	retlw	215
   511  02CD  3403               	retlw	3
   512  02CE  34D7               	retlw	215
   513  02CF  3403               	retlw	3
   514  02D0  34D8               	retlw	216
   515  02D1  3403               	retlw	3
   516  02D2  34D9               	retlw	217
   517  02D3  3403               	retlw	3
   518  02D4  34D9               	retlw	217
   519  02D5  3403               	retlw	3
   520  02D6  34DA               	retlw	218
   521  02D7  3403               	retlw	3
   522  02D8  34DB               	retlw	219
   523  02D9  3403               	retlw	3
   524  02DA  34DB               	retlw	219
   525  02DB  3403               	retlw	3
   526  02DC  34DC               	retlw	220
   527  02DD  3403               	retlw	3
   528  02DE  34DD               	retlw	221
   529  02DF  3403               	retlw	3
   530  02E0  34DD               	retlw	221
   531  02E1  3403               	retlw	3
   532  02E2  34DE               	retlw	222
   533  02E3  3403               	retlw	3
   534  02E4  34DE               	retlw	222
   535  02E5  3403               	retlw	3
   536  02E6  34DF               	retlw	223
   537  02E7  3403               	retlw	3
   538  02E8  34DF               	retlw	223
   539  02E9  3403               	retlw	3
   540  02EA  34E0               	retlw	224
   541  02EB  3403               	retlw	3
   542  02EC                     _LCDCode:	
   543  02EC  343F               	retlw	63
   544  02ED  3406               	retlw	6
   545  02EE  345B               	retlw	91
   546  02EF  344F               	retlw	79
   547  02F0  3466               	retlw	102
   548  02F1  346D               	retlw	109
   549  02F2  347D               	retlw	125
   550  02F3  3407               	retlw	7
   551  02F4  347F               	retlw	127
   552  02F5  346F               	retlw	111
   553  02F6  3477               	retlw	119
   554  02F7  347C               	retlw	124
   555  02F8  3439               	retlw	57
   556  02F9  345E               	retlw	94
   557  02FA  3479               	retlw	121
   558  02FB  3471               	retlw	113
   559  001F                     _ADCON0	set	31
   560  001E                     _ADRESH	set	30
   561  000B                     _INTCON	set	11
   562  0005                     _PORTA	set	5
   563  0006                     _PORTB	set	6
   564  0007                     _PORTC	set	7
   565  0012                     _T2CON	set	18
   566  00F9                     _GODONE	set	249
   567  0029                     _RA1	set	41
   568  002A                     _RA2	set	42
   569  002B                     _RA3	set	43
   570  002C                     _RA4	set	44
   571  0032                     _RB2	set	50
   572  0035                     _RB5	set	53
   573  0036                     _RB6	set	54
   574  0037                     _RB7	set	55
   575  0038                     _RC0	set	56
   576  0039                     _RC1	set	57
   577  003A                     _RC2	set	58
   578  003B                     _RC3	set	59
   579  0048                     _RE0	set	72
   580  0061                     _TMR2IF	set	97
   581  0092                     _TMR2ON	set	146
   582  009F                     _ADCON1	set	159
   583  009E                     _ADRESL	set	158
   584  008F                     _OSCCON	set	143
   585  008C                     _PIE1	set	140
   586  0092                     _PR2	set	146
   587  0085                     _TRISA	set	133
   588  0086                     _TRISB	set	134
   589  0087                     _TRISC	set	135
   590  0089                     _TRISE	set	137
   591  0197                     _COMEN	set	407
   592  0190                     _LCDCON0	set	400
   593  018E                     _WPUA	set	398
   594                           
   595                           	psect	cinit
   596  00C1                     start_initialization:	
   597  00C1  3020               	movlw	low __pbssBANK0
   598                           
   599                           ; Clear objects allocated to BITCOMMON
   600  00C2  01F0               	clrf	(__pbitbssCOMMON/(0+8))& (0+127)
   601  00C3  01F1               	clrf	((__pbitbssCOMMON/(0+8)+1))& (0+127)
   602  00C4  01F2               	clrf	((__pbitbssCOMMON/(0+8)+2))& (0+127)
   603                           
   604                           ; Clear objects allocated to COMMON
   605  00C5  01FB               	clrf	__pbssCOMMON& (0+127)
   606  00C6  01FC               	clrf	(__pbssCOMMON+1)& (0+127)
   607  00C7  01FD               	clrf	(__pbssCOMMON+2)& (0+127)
   608                           
   609                           ; Clear objects allocated to BANK0
   610  00C8  1383               	bcf	3,7	;select IRP bank0
   611  00C9  0084               	movwf	4
   612  00CA  3055               	movlw	low (__pbssBANK0+53)
   613  00CB  27F5               	fcall	clear_ram
   614  00CC                     end_of_initialization:	
   615                           ;End of C runtime variable initialization code
   616                           
   617  00CC  0183               	clrf	3
   618  00CD  2FD0               	ljmp	_main	;jump to C main() function
   619                           
   620                           	psect	bitbssCOMMON
   621  0380                     __pbitbssCOMMON:	
   622  0380                     _Flag_HV:	
   623  0380                     	ds	1
   624  0381                     _Flag_ach:	
   625  0381                     	ds	1
   626  0382                     _Flag_bit:	
   627  0382                     	ds	1
   628  0383                     _Flag_en:	
   629  0383                     	ds	1
   630  0384                     _Flag_err:	
   631  0384                     	ds	1
   632  0385                     _Flag_first:	
   633  0385                     	ds	1
   634  0386                     _Flag_hot:	
   635  0386                     	ds	1
   636  0387                     _Flag_keyf:	
   637  0387                     	ds	1
   638  0388                     _Flag_mainloop:	
   639  0388                     	ds	1
   640  0389                     _Flag_ntc_onead:	
   641  0389                     	ds	1
   642  038A                     _Flag_onoff:	
   643  038A                     	ds	1
   644  038B                     _Flag_rt_open:	
   645  038B                     	ds	1
   646  038C                     _Flag_rt_short:	
   647  038C                     	ds	1
   648  038D                     _Flag_step:	
   649  038D                     	ds	1
   650  038E                     _Flag_temprdir:	
   651  038E                     	ds	1
   652  038F                     _Flag_temprok:	
   653  038F                     	ds	1
   654  0390                     _Flag_vtemp:	
   655  0390                     	ds	1
   656  0391                     _Flag_zero:	
   657  0391                     	ds	1
   658                           
   659                           	psect	bssCOMMON
   660  007B                     __pbssCOMMON:	
   661  007B                     _Tempr_tdata:	
   662  007B                     	ds	2
   663  007D                     _Dcount:	
   664  007D                     	ds	1
   665                           
   666                           	psect	bssBANK0
   667  0020                     __pbssBANK0:	
   668  0020                     _PID:	
   669  0020                     	ds	18
   670  0032                     _Display:	
   671  0032                     	ds	4
   672  0036                     Tmper_pro@n:	
   673  0036                     	ds	2
   674  0038                     _Admax:	
   675  0038                     	ds	2
   676  003A                     _Admin:	
   677  003A                     	ds	2
   678  003C                     _Adresult:	
   679  003C                     	ds	2
   680  003E                     _Adsum:	
   681  003E                     	ds	2
   682  0040                     _Keyc1:	
   683  0040                     	ds	2
   684  0042                     _Pid_count:	
   685  0042                     	ds	2
   686  0044                     _Tempr_rank:	
   687  0044                     	ds	2
   688  0046                     _Tempr_setdata:	
   689  0046                     	ds	2
   690  0048                     _Tmper_temp:	
   691  0048                     	ds	2
   692  004A                     _count1:	
   693  004A                     	ds	2
   694  004C                     _Adtimes:	
   695  004C                     	ds	1
   696  004D                     _Keyc:	
   697  004D                     	ds	1
   698  004E                     _Keyflash:	
   699  004E                     	ds	1
   700  004F                     _Keyold:	
   701  004F                     	ds	1
   702  0050                     _Kkg_dly:	
   703  0050                     	ds	1
   704  0051                     _Maintime:	
   705  0051                     	ds	1
   706  0052                     _Ntcnormaldely:	
   707  0052                     	ds	1
   708  0053                     _Ntcopendely:	
   709  0053                     	ds	1
   710  0054                     _Ntcshortdely:	
   711  0054                     	ds	1
   712                           
   713                           	psect	clrtext
   714  07F5                     clear_ram:	
   715                           ;	Called with FSR containing the base address, and
   716                           ;	W with the last address+1
   717                           
   718  07F5  0064               	clrwdt	;clear the watchdog before getting into this loop
   719  07F6                     clrloop:	
   720  07F6  0180               	clrf	0	;clear RAM location pointed to by FSR
   721  07F7  0A84               	incf	4,f	;increment pointer
   722  07F8  0604               	xorwf	4,w	;XOR with final address
   723  07F9  1903               	btfsc	3,2	;have we reached the end yet?
   724  07FA  3400               	retlw	0	;all done for this memory range, return
   725  07FB  0604               	xorwf	4,w	;XOR again to restore value
   726  07FC  2FF6               	goto	clrloop	;do the next byte
   727                           
   728                           	psect	cstackCOMMON
   729  0073                     __pcstackCOMMON:	
   730  0073                     ?_disf:	
   731  0073                     ?_Check_Ntc:	
   732                           ; 0 bytes @ 0x0
   733                           
   734  0073                     ?_Tmper_pro:	
   735                           ; 0 bytes @ 0x0
   736                           
   737  0073                     ??_Tmper_pro:	
   738                           ; 0 bytes @ 0x0
   739                           
   740  0073                     ?_PID_control:	
   741                           ; 0 bytes @ 0x0
   742                           
   743  0073                     ?_Temp_setdeal:	
   744                           ; 0 bytes @ 0x0
   745                           
   746  0073                     ?_Kscan:	
   747                           ; 0 bytes @ 0x0
   748                           
   749  0073                     ?_Kdeal:	
   750                           ; 0 bytes @ 0x0
   751                           
   752  0073                     ?_PID_operation:	
   753                           ; 0 bytes @ 0x0
   754                           
   755  0073                     ?_Delay:	
   756                           ; 0 bytes @ 0x0
   757                           
   758  0073                     ?_Set_disp:	
   759                           ; 0 bytes @ 0x0
   760                           
   761  0073                     ?_Disp_Lcd:	
   762                           ; 0 bytes @ 0x0
   763                           
   764  0073                     ?_Ad_testing:	
   765                           ; 0 bytes @ 0x0
   766                           
   767  0073                     ?_source_v:	
   768                           ; 0 bytes @ 0x0
   769                           
   770  0073                     ?_Init_System:	
   771                           ; 0 bytes @ 0x0
   772                           
   773  0073                     ?_AcTestZero:	
   774                           ; 0 bytes @ 0x0
   775                           
   776  0073                     ??_AcTestZero:	
   777                           ; 0 bytes @ 0x0
   778                           
   779  0073                     ?_ScrControl:	
   780                           ; 0 bytes @ 0x0
   781                           
   782  0073                     ??_ScrControl:	
   783                           ; 0 bytes @ 0x0
   784                           
   785  0073                     ?_Isr_Timer:	
   786                           ; 0 bytes @ 0x0
   787                           
   788  0073                     ?_main:	
   789                           ; 0 bytes @ 0x0
   790                           
   791  0073                     ?_Ad_sample:	
   792                           ; 0 bytes @ 0x0
   793                           
   794                           
   795                           ; 1 bytes @ 0x0
   796  0073                     	ds	4
   797  0077                     ??_Isr_Timer:	
   798                           
   799                           ; 0 bytes @ 0x4
   800  0077                     	ds	4
   801                           
   802                           	psect	cstackBANK0
   803  0055                     __pcstackBANK0:	
   804  0055                     ??_disf:	
   805  0055                     ??_Check_Ntc:	
   806                           ; 0 bytes @ 0x0
   807                           
   808  0055                     ??_Temp_setdeal:	
   809                           ; 0 bytes @ 0x0
   810                           
   811  0055                     ??_Kdeal:	
   812                           ; 0 bytes @ 0x0
   813                           
   814  0055                     ??_Delay:	
   815                           ; 0 bytes @ 0x0
   816                           
   817  0055                     ??_Ad_sample:	
   818                           ; 0 bytes @ 0x0
   819                           
   820  0055                     ??_Init_System:	
   821                           ; 0 bytes @ 0x0
   822                           
   823  0055                     ?___wmul:	
   824                           ; 0 bytes @ 0x0
   825                           
   826  0055                     ?___lwmod:	
   827                           ; 2 bytes @ 0x0
   828                           
   829  0055                     disf@a:	
   830                           ; 2 bytes @ 0x0
   831                           
   832  0055                     Delay@k:	
   833                           ; 1 bytes @ 0x0
   834                           
   835  0055                     ___wmul@multiplier:	
   836                           ; 1 bytes @ 0x0
   837                           
   838  0055                     ___lwmod@divisor:	
   839                           ; 2 bytes @ 0x0
   840                           
   841                           
   842                           ; 2 bytes @ 0x0
   843  0055                     	ds	1
   844  0056                     ??_Disp_Lcd:	
   845  0056                     Ad_sample@adch:	
   846                           ; 0 bytes @ 0x1
   847                           
   848  0056                     Delay@i:	
   849                           ; 1 bytes @ 0x1
   850                           
   851                           
   852                           ; 1 bytes @ 0x1
   853  0056                     	ds	1
   854  0057                     ??_Kscan:	
   855  0057                     Ad_sample@i:	
   856                           ; 0 bytes @ 0x2
   857                           
   858  0057                     ___wmul@multiplicand:	
   859                           ; 1 bytes @ 0x2
   860                           
   861  0057                     ___lwmod@dividend:	
   862                           ; 2 bytes @ 0x2
   863                           
   864                           
   865                           ; 2 bytes @ 0x2
   866  0057                     	ds	1
   867  0058                     ??_Ad_testing:	
   868  0058                     ??_source_v:	
   869                           ; 0 bytes @ 0x3
   870                           
   871                           
   872                           ; 0 bytes @ 0x3
   873  0058                     	ds	1
   874  0059                     ??___wmul:	
   875  0059                     ??___lwmod:	
   876                           ; 0 bytes @ 0x4
   877                           
   878  0059                     ___lwmod@counter:	
   879                           ; 0 bytes @ 0x4
   880                           
   881  0059                     ___wmul@product:	
   882                           ; 1 bytes @ 0x4
   883                           
   884                           
   885                           ; 2 bytes @ 0x4
   886  0059                     	ds	1
   887  005A                     ?___lwdiv:	
   888  005A                     Ad_testing@i:	
   889                           ; 2 bytes @ 0x5
   890                           
   891  005A                     source_v@i:	
   892                           ; 1 bytes @ 0x5
   893                           
   894  005A                     ___lwdiv@divisor:	
   895                           ; 1 bytes @ 0x5
   896                           
   897                           
   898                           ; 2 bytes @ 0x5
   899  005A                     	ds	1
   900  005B                     ??_PID_operation:	
   901  005B                     Ad_testing@Ad_temp:	
   902                           ; 0 bytes @ 0x6
   903                           
   904  005B                     source_v@vsum:	
   905                           ; 2 bytes @ 0x6
   906                           
   907                           
   908                           ; 2 bytes @ 0x6
   909  005B                     	ds	1
   910  005C                     ___lwdiv@dividend:	
   911                           
   912                           ; 2 bytes @ 0x7
   913  005C                     	ds	1
   914  005D                     source_v@vtimes:	
   915                           
   916                           ; 1 bytes @ 0x8
   917  005D                     	ds	1
   918  005E                     ??___lwdiv:	
   919  005E                     source_v@k:	
   920                           ; 0 bytes @ 0x9
   921                           
   922  005E                     ___lwdiv@quotient:	
   923                           ; 2 bytes @ 0x9
   924                           
   925                           
   926                           ; 2 bytes @ 0x9
   927  005E                     	ds	1
   928  005F                     PID_operation@NegSum:	
   929                           
   930                           ; 2 bytes @ 0xA
   931  005F                     	ds	1
   932  0060                     source_v@vresult:	
   933  0060                     ___lwdiv@counter:	
   934                           ; 1 bytes @ 0xB
   935                           
   936                           
   937                           ; 1 bytes @ 0xB
   938  0060                     	ds	1
   939  0061                     ??_Set_disp:	
   940  0061                     Set_disp@smg_data2:	
   941                           ; 0 bytes @ 0xC
   942                           
   943  0061                     source_v@vmax:	
   944                           ; 1 bytes @ 0xC
   945                           
   946  0061                     PID_operation@PostSum:	
   947                           ; 1 bytes @ 0xC
   948                           
   949                           
   950                           ; 2 bytes @ 0xC
   951  0061                     	ds	1
   952  0062                     Set_disp@smg_data3:	
   953                           
   954                           ; 1 bytes @ 0xD
   955  0062                     	ds	1
   956  0063                     Set_disp@smg_data1:	
   957  0063                     PID_operation@Temp:	
   958                           ; 1 bytes @ 0xE
   959                           
   960                           
   961                           ; 6 bytes @ 0xE
   962  0063                     	ds	6
   963  0069                     ??_PID_control:	
   964                           
   965                           ; 0 bytes @ 0x14
   966  0069                     	ds	2
   967  006B                     ??_main:	
   968                           
   969                           	psect	maintext
   970  07D0                     __pmaintext:	
   971                           ; 0 bytes @ 0x16
   972 ;;Data sizes: Strings 0, constant 490, data 0, bss 56, persistent 0 stack 0
   973 ;;Auto spaces:   Size  Autos    Used
   974 ;; COMMON          14      8      14
   975 ;; BANK0           80     22      75
   976 ;; BANK1           80      0       0
   977 ;;
   978 ;; Pointer list with targets:
   979 ;; ?___wmul	unsigned int  size(1) Largest target is 0
   980 ;;
   981 ;; ?___lwmod	unsigned int  size(1) Largest target is 0
   982 ;;
   983 ;; ?___lwdiv	unsigned int  size(1) Largest target is 0
   984 ;;
   985 ;;
   986 ;; Critical Paths under _main in COMMON
   987 ;;
   988 ;;   None.
   989 ;;
   990 ;; Critical Paths under _Isr_Timer in COMMON
   991 ;;
   992 ;;   _Isr_Timer->_Tmper_pro
   993 ;;
   994 ;; Critical Paths under _main in BANK0
   995 ;;
   996 ;;   _main->_PID_control
   997 ;;   _PID_control->_PID_operation
   998 ;;   _PID_operation->___wmul
   999 ;;   _Kscan->_Delay
  1000 ;;   _source_v->_Ad_sample
  1001 ;;   _Ad_testing->_Ad_sample
  1002 ;;   _Disp_Lcd->_disf
  1003 ;;   _Set_disp->___lwdiv
  1004 ;;   ___lwdiv->___lwmod
  1005 ;;
  1006 ;; Critical Paths under _Isr_Timer in BANK0
  1007 ;;
  1008 ;;   None.
  1009 ;;
  1010 ;; Critical Paths under _main in BANK1
  1011 ;;
  1012 ;;   None.
  1013 ;;
  1014 ;; Critical Paths under _Isr_Timer in BANK1
  1015 ;;
  1016 ;;   None.
  1017 ;;
  1018 ;;Main: autosize = 0, tempsize = 0, incstack = 0, save=0
  1019 ;;
  1020 ;;
  1021 ;;Call Graph Tables:
  1022 ;;
  1023 ;; ---------------------------------------------------------------------------------
  1024 ;; (Depth) Function   	        Calls       Base Space   Used Autos Params    Refs
  1025 ;; ---------------------------------------------------------------------------------
  1026 ;; (0) _main                                                 0     0      0    2189
  1027 ;;                        _Init_System
  1028 ;;                           _source_v
  1029 ;;                         _Ad_testing
  1030 ;;                        _PID_control
  1031 ;;                       _Temp_setdeal
  1032 ;;                           _Set_disp
  1033 ;;                              _Kscan
  1034 ;;                              _Kdeal
  1035 ;;                           _Disp_Lcd
  1036 ;; ---------------------------------------------------------------------------------
  1037 ;; (1) _PID_control                                          2     2      0     770
  1038 ;;                                             20 BANK0      2     2      0
  1039 ;;                      _PID_operation
  1040 ;;                            ___lwdiv
  1041 ;; ---------------------------------------------------------------------------------
  1042 ;; (2) _PID_operation                                       14    14      0     608
  1043 ;;                                              6 BANK0     14    14      0
  1044 ;;                             ___wmul
  1045 ;; ---------------------------------------------------------------------------------
  1046 ;; (1) _Kscan                                                0     0      0      46
  1047 ;;                              _Delay
  1048 ;; ---------------------------------------------------------------------------------
  1049 ;; (1) _source_v                                            10    10      0     253
  1050 ;;                                              3 BANK0     10    10      0
  1051 ;;                          _Ad_sample
  1052 ;; ---------------------------------------------------------------------------------
  1053 ;; (1) _Ad_testing                                           5     5      0     180
  1054 ;;                                              3 BANK0      5     5      0
  1055 ;;                          _Ad_sample
  1056 ;;                          _Check_Ntc
  1057 ;; ---------------------------------------------------------------------------------
  1058 ;; (1) _Disp_Lcd                                             0     0      0     132
  1059 ;;                               _disf
  1060 ;; ---------------------------------------------------------------------------------
  1061 ;; (1) _Set_disp                                             3     3      0     808
  1062 ;;                                             12 BANK0      3     3      0
  1063 ;;                            ___lwdiv
  1064 ;;                            ___lwmod
  1065 ;; ---------------------------------------------------------------------------------
  1066 ;; (2) ___lwmod                                              5     1      4     159
  1067 ;;                                              0 BANK0      5     1      4
  1068 ;; ---------------------------------------------------------------------------------
  1069 ;; (2) ___lwdiv                                              7     3      4     162
  1070 ;;                                              5 BANK0      7     3      4
  1071 ;;                            ___lwmod (ARG)
  1072 ;; ---------------------------------------------------------------------------------
  1073 ;; (3) ___wmul                                               6     2      4      92
  1074 ;;                                              0 BANK0      6     2      4
  1075 ;; ---------------------------------------------------------------------------------
  1076 ;; (2) _Delay                                                2     2      0      46
  1077 ;;                                              0 BANK0      2     2      0
  1078 ;; ---------------------------------------------------------------------------------
  1079 ;; (1) _Kdeal                                                2     2      0       0
  1080 ;;                                              0 BANK0      2     2      0
  1081 ;; ---------------------------------------------------------------------------------
  1082 ;; (1) _Temp_setdeal                                         0     0      0       0
  1083 ;; ---------------------------------------------------------------------------------
  1084 ;; (1) _Init_System                                          0     0      0       0
  1085 ;; ---------------------------------------------------------------------------------
  1086 ;; (2) _Check_Ntc                                            0     0      0       0
  1087 ;; ---------------------------------------------------------------------------------
  1088 ;; (2) _Ad_sample                                            3     3      0      45
  1089 ;;                                              0 BANK0      3     3      0
  1090 ;; ---------------------------------------------------------------------------------
  1091 ;; (2) _disf                                                 1     1      0     132
  1092 ;;                                              0 BANK0      1     1      0
  1093 ;; ---------------------------------------------------------------------------------
  1094 ;; Estimated maximum stack depth 3
  1095 ;; ---------------------------------------------------------------------------------
  1096 ;; (Depth) Function   	        Calls       Base Space   Used Autos Params    Refs
  1097 ;; ---------------------------------------------------------------------------------
  1098 ;; (4) _Isr_Timer                                            4     4      0       0
  1099 ;;                                              4 COMMON     4     4      0
  1100 ;;                         _AcTestZero
  1101 ;;                         _ScrControl
  1102 ;;                          _Tmper_pro
  1103 ;; ---------------------------------------------------------------------------------
  1104 ;; (6) _Tmper_pro                                            4     4      0       0
  1105 ;;                                              0 COMMON     4     4      0
  1106 ;; ---------------------------------------------------------------------------------
  1107 ;; (5) _ScrControl                                           0     0      0       0
  1108 ;; ---------------------------------------------------------------------------------
  1109 ;; (5) _AcTestZero                                           0     0      0       0
  1110 ;; ---------------------------------------------------------------------------------
  1111 ;; Estimated maximum stack depth 6
  1112 ;; ---------------------------------------------------------------------------------
  1113 ;; Call Graph Graphs:
  1114 ;; _main (ROOT)
  1115 ;;   _Init_System
  1116 ;;   _source_v
  1117 ;;     _Ad_sample
  1118 ;;   _Ad_testing
  1119 ;;     _Ad_sample
  1120 ;;     _Check_Ntc
  1121 ;;   _PID_control
  1122 ;;     _PID_operation
  1123 ;;       ___wmul
  1124 ;;     ___lwdiv
  1125 ;;       ___lwmod (ARG)
  1126 ;;   _Temp_setdeal
  1127 ;;   _Set_disp
  1128 ;;     ___lwdiv
  1129 ;;       ___lwmod (ARG)
  1130 ;;     ___lwmod
  1131 ;;   _Kscan
  1132 ;;     _Delay
  1133 ;;   _Kdeal
  1134 ;;   _Disp_Lcd
  1135 ;;     _disf
  1136 ;;
  1137 ;; _Isr_Timer (ROOT)
  1138 ;;   _AcTestZero
  1139 ;;   _ScrControl
  1140 ;;   _Tmper_pro
  1141 ;;
  1142 ;; Address spaces:
  1143 ;;Name               Size   Autos  Total    Cost      Usage
  1144 ;;BITCOMMON            E      0       3       0       21.4%
  1145 ;;NULL                 0      0       0       0        0.0%
  1146 ;;CODE                 0      0       0       0        0.0%
  1147 ;;COMMON               E      8       E       1      100.0%
  1148 ;;BITSFR0              0      0       0       1        0.0%
  1149 ;;SFR0                 0      0       0       1        0.0%
  1150 ;;BITSFR1              0      0       0       2        0.0%
  1151 ;;SFR1                 0      0       0       2        0.0%
  1152 ;;STACK                0      0       9       2        0.0%
  1153 ;;ABS                  0      0      59       3        0.0%
  1154 ;;BITBANK0            50      0       0       4        0.0%
  1155 ;;BITSFR3              0      0       0       4        0.0%
  1156 ;;SFR3                 0      0       0       4        0.0%
  1157 ;;BANK0               50     16      4B       5       93.8%
  1158 ;;BITSFR2              0      0       0       5        0.0%
  1159 ;;SFR2                 0      0       0       5        0.0%
  1160 ;;BITBANK1            50      0       0       6        0.0%
  1161 ;;BANK1               50      0       0       7        0.0%
  1162 ;;DATA                 0      0      62       8        0.0%
  1163                           
  1164                           
  1165 ;; *************** function _main *****************
  1166 ;; Defined at:
  1167 ;;		line 130 in file "E:\Elec DataSheet\\\SC8P171X_Demo  -- \ZFQ-Demo-Code -2018
      +0105_V1.0-1713s\XLD-DLZFQ-20180105_V1.0\XLD-DLZFQ-20180105_V1.0.C"
  1168 ;; Parameters:    Size  Location     Type
  1169 ;;		None
  1170 ;; Auto vars:     Size  Location     Type
  1171 ;;		None
  1172 ;; Return value:  Size  Location     Type
  1173 ;;		None               void
  1174 ;; Registers used:
  1175 ;;		wreg, fsr0l, fsr0h, status,2, status,0, btemp+1, pclath, cstack
  1176 ;; Tracked objects:
  1177 ;;		On entry : 17F/0
  1178 ;;		On exit  : 60/0
  1179 ;;		Unchanged: FFE00/0
  1180 ;; Data sizes:     COMMON   BANK0   BANK1
  1181 ;;      Params:         0       0       0
  1182 ;;      Locals:         0       0       0
  1183 ;;      Temps:          0       0       0
  1184 ;;      Totals:         0       0       0
  1185 ;;Total ram usage:        0 bytes
  1186 ;; Hardware stack levels required when called:    6
  1187 ;; This function calls:
  1188 ;;		_Init_System
  1189 ;;		_source_v
  1190 ;;		_Ad_testing
  1191 ;;		_PID_control
  1192 ;;		_Temp_setdeal
  1193 ;;		_Set_disp
  1194 ;;		_Kscan
  1195 ;;		_Kdeal
  1196 ;;		_Disp_Lcd
  1197 ;; This function is called by:
  1198 ;;		Startup code after reset
  1199 ;; This function uses a non-reentrant model
  1200 ;;
  1201  07D0                     _main:	
  1202                           
  1203                           ;XLD-DLZFQ-20180105_V1.0.C: 131: Init_System();
  1204                           
  1205                           ; Regs used in _main: [wreg-fsr0h+status,2+status,0+btemp+1+pclath+cstack]
  1206  07D0  2035               	fcall	_Init_System
  1207                           
  1208                           ;XLD-DLZFQ-20180105_V1.0.C: 133: source_v(9);
  1209  07D1  3009               	movlw	9
  1210  07D2  26BE               	fcall	_source_v
  1211                           
  1212                           ;XLD-DLZFQ-20180105_V1.0.C: 135: PIE1=2;
  1213  07D3  3002               	movlw	2
  1214  07D4  1683               	bsf	3,5	;RP0=1, select bank1
  1215  07D5  008C               	movwf	12	;volatile
  1216                           
  1217                           ;XLD-DLZFQ-20180105_V1.0.C: 136: PR2=250;
  1218  07D6  30FA               	movlw	250
  1219  07D7  0092               	movwf	18	;volatile
  1220                           
  1221                           ;XLD-DLZFQ-20180105_V1.0.C: 137: T2CON=4;
  1222  07D8  3004               	movlw	4
  1223  07D9  1283               	bcf	3,5	;RP0=0, select bank0
  1224  07DA  0092               	movwf	18	;volatile
  1225                           
  1226                           ;XLD-DLZFQ-20180105_V1.0.C: 138: INTCON=0XC0;
  1227  07DB  30C0               	movlw	192
  1228  07DC  008B               	movwf	11	;volatile
  1229  07DD  3014               	movlw	20
  1230                           
  1231                           ;XLD-DLZFQ-20180105_V1.0.C: 140: PID.uKP_Coe=1;
  1232  07DE  01A9               	clrf	_PID+9
  1233  07DF  0AA9               	incf	_PID+9,f
  1234                           
  1235                           ;XLD-DLZFQ-20180105_V1.0.C: 141: PID.uKI_Coe=1;
  1236  07E0  01AA               	clrf	_PID+10
  1237  07E1  0AAA               	incf	_PID+10,f
  1238                           
  1239                           ;XLD-DLZFQ-20180105_V1.0.C: 142: PID.uKD_Coe=20;
  1240  07E2  00AB               	movwf	_PID+11
  1241  07E3  30B4               	movlw	180
  1242                           
  1243                           ;XLD-DLZFQ-20180105_V1.0.C: 144: PID.iPriVal=0;
  1244  07E4  01AC               	clrf	_PID+12
  1245  07E5  01AD               	clrf	_PID+13
  1246                           
  1247                           ;XLD-DLZFQ-20180105_V1.0.C: 145: Tempr_setdata=180;
  1248  07E6  00C6               	movwf	_Tempr_setdata
  1249  07E7  01C7               	clrf	_Tempr_setdata+1
  1250  07E8                     l4693:	
  1251                           
  1252                           ;XLD-DLZFQ-20180105_V1.0.C: 148: {
  1253                           ;XLD-DLZFQ-20180105_V1.0.C: 149: if(Flag_mainloop)
  1254  07E8  1C71               	btfss	_Flag_mainloop/(0+8),_Flag_mainloop& (0+7)
  1255  07E9  2FE8               	goto	l4693
  1256                           
  1257                           ;XLD-DLZFQ-20180105_V1.0.C: 150: {
  1258                           ;XLD-DLZFQ-20180105_V1.0.C: 151: Flag_mainloop = 0;
  1259  07EA  1071               	bcf	_Flag_mainloop/(0+8),_Flag_mainloop& (0+7)
  1260  07EB  0064               	clrwdt	;#
  1261                           
  1262                           ;XLD-DLZFQ-20180105_V1.0.C: 153: Ad_testing(11);
  1263  07EC  300B               	movlw	11
  1264  07ED  251B               	fcall	_Ad_testing
  1265                           
  1266                           ;XLD-DLZFQ-20180105_V1.0.C: 156: PID_control();
  1267  07EE  273A               	fcall	_PID_control
  1268                           
  1269                           ;XLD-DLZFQ-20180105_V1.0.C: 157: Temp_setdeal();
  1270  07EF  2637               	fcall	_Temp_setdeal
  1271                           
  1272                           ;XLD-DLZFQ-20180105_V1.0.C: 158: Set_disp();
  1273  07F0  2409               	fcall	_Set_disp
  1274                           
  1275                           ;XLD-DLZFQ-20180105_V1.0.C: 159: Kscan();
  1276  07F1  25EC               	fcall	_Kscan
  1277                           
  1278                           ;XLD-DLZFQ-20180105_V1.0.C: 160: Kdeal();
  1279  07F2  267B               	fcall	_Kdeal
  1280                           
  1281                           ;XLD-DLZFQ-20180105_V1.0.C: 161: Disp_Lcd();
  1282  07F3  2495               	fcall	_Disp_Lcd
  1283  07F4  2FE8               	goto	l4693
  1284  07F5                     __end_of_main:	
  1285                           
  1286                           	psect	text437
  1287  073A                     __ptext437:	
  1288 ;; =============== function _main ends ============
  1289                           
  1290                           
  1291 ;; *************** function _PID_control *****************
  1292 ;; Defined at:
  1293 ;;		line 170 in file "E:\Elec DataSheet\\\SC8P171X_Demo  -- \ZFQ-Demo-Code -2018
      +0105_V1.0-1713s\XLD-DLZFQ-20180105_V1.0\XLD-DLZFQ-20180105_V1.0.C"
  1294 ;; Parameters:    Size  Location     Type
  1295 ;;		None
  1296 ;; Auto vars:     Size  Location     Type
  1297 ;;		None
  1298 ;; Return value:  Size  Location     Type
  1299 ;;		None               void
  1300 ;; Registers used:
  1301 ;;		wreg, fsr0l, fsr0h, status,2, status,0, btemp+1, pclath, cstack
  1302 ;; Tracked objects:
  1303 ;;		On entry : 60/0
  1304 ;;		On exit  : 60/0
  1305 ;;		Unchanged: FFE9F/0
  1306 ;; Data sizes:     COMMON   BANK0   BANK1
  1307 ;;      Params:         0       0       0
  1308 ;;      Locals:         0       0       0
  1309 ;;      Temps:          0       2       0
  1310 ;;      Totals:         0       2       0
  1311 ;;Total ram usage:        2 bytes
  1312 ;; Hardware stack levels used:    1
  1313 ;; Hardware stack levels required when called:    5
  1314 ;; This function calls:
  1315 ;;		_PID_operation
  1316 ;;		___lwdiv
  1317 ;; This function is called by:
  1318 ;;		_main
  1319 ;; This function uses a non-reentrant model
  1320 ;;
  1321  073A                     _PID_control:	
  1322                           
  1323                           ;XLD-DLZFQ-20180105_V1.0.C: 171: if(Flag_onoff)
  1324                           
  1325                           ; Regs used in _PID_control: [wreg-fsr0h+status,2+status,0+btemp+1+pclath+cstack]
  1326  073A  1D71               	btfss	_Flag_onoff/(0+8),_Flag_onoff& (0+7)
  1327  073B  2F70               	goto	l4669
  1328                           
  1329                           ;XLD-DLZFQ-20180105_V1.0.C: 172: {
  1330                           ;XLD-DLZFQ-20180105_V1.0.C: 173: Pid_count++;
  1331  073C  0AC2               	incf	_Pid_count,f
  1332  073D  1903               	skipnz
  1333  073E  0AC3               	incf	_Pid_count+1,f
  1334                           
  1335                           ;XLD-DLZFQ-20180105_V1.0.C: 174: if(Pid_count>=400)
  1336  073F  3001               	movlw	1
  1337  0740  0243               	subwf	_Pid_count+1,w
  1338  0741  3090               	movlw	144
  1339  0742  1903               	skipnz
  1340  0743  0242               	subwf	_Pid_count,w
  1341  0744  1C03               	skipc
  1342  0745  2F49               	goto	l4659
  1343                           
  1344                           ;XLD-DLZFQ-20180105_V1.0.C: 175: {
  1345                           ;XLD-DLZFQ-20180105_V1.0.C: 176: Pid_count=0;
  1346  0746  01C2               	clrf	_Pid_count
  1347  0747  01C3               	clrf	_Pid_count+1
  1348                           
  1349                           ;XLD-DLZFQ-20180105_V1.0.C: 177: PID_operation();
  1350  0748  22FC               	fcall	_PID_operation
  1351  0749                     l4659:	
  1352                           
  1353                           ;XLD-DLZFQ-20180105_V1.0.C: 178: }
  1354                           ;XLD-DLZFQ-20180105_V1.0.C: 179: if(Flag_err==0)
  1355  0749  1A70               	btfsc	_Flag_err/(0+8),_Flag_err& (0+7)
  1356  074A  2F4F               	goto	l4663
  1357                           
  1358                           ;XLD-DLZFQ-20180105_V1.0.C: 180: {
  1359                           ;XLD-DLZFQ-20180105_V1.0.C: 181: if(PID.iPriVal==0)
  1360  074B  082D               	movf	_PID+13,w
  1361  074C  042C               	iorwf	_PID+12,w
  1362  074D  1D03               	skipz
  1363  074E  2F51               	goto	l4665
  1364  074F                     l4663:	
  1365                           
  1366                           ;XLD-DLZFQ-20180105_V1.0.C: 182: {
  1367                           ;XLD-DLZFQ-20180105_V1.0.C: 183: Flag_hot=0;
  1368  074F  1370               	bcf	_Flag_hot/(0+8),_Flag_hot& (0+7)
  1369                           
  1370                           ;XLD-DLZFQ-20180105_V1.0.C: 184: }
  1371  0750  0008               	return
  1372  0751                     l4665:	
  1373                           
  1374                           ;XLD-DLZFQ-20180105_V1.0.C: 185: else if((Pid_count>>3)<(PID.iPriVal/10))
  1375  0751  300A               	movlw	10
  1376  0752  00DA               	movwf	?___lwdiv
  1377  0753  01DB               	clrf	?___lwdiv+1
  1378  0754  082D               	movf	_PID+13,w
  1379  0755  00DD               	movwf	?___lwdiv+3
  1380  0756  082C               	movf	_PID+12,w
  1381  0757  00DC               	movwf	?___lwdiv+2
  1382  0758  27A6               	fcall	___lwdiv
  1383  0759  0843               	movf	_Pid_count+1,w
  1384  075A  00EA               	movwf	??_PID_control+1
  1385  075B  0842               	movf	_Pid_count,w
  1386  075C  00E9               	movwf	??_PID_control
  1387  075D  1003               	clrc
  1388  075E  0CEA               	rrf	??_PID_control+1,f
  1389  075F  0CE9               	rrf	??_PID_control,f
  1390  0760  1003               	clrc
  1391  0761  0CEA               	rrf	??_PID_control+1,f
  1392  0762  0CE9               	rrf	??_PID_control,f
  1393  0763  1003               	clrc
  1394  0764  0CEA               	rrf	??_PID_control+1,f
  1395  0765  0CE9               	rrf	??_PID_control,f
  1396  0766  085B               	movf	?___lwdiv+1,w
  1397  0767  026A               	subwf	??_PID_control+1,w
  1398  0768  1D03               	skipz
  1399  0769  2F6C               	goto	u2655
  1400  076A  085A               	movf	?___lwdiv,w
  1401  076B  0269               	subwf	??_PID_control,w
  1402  076C                     u2655:	
  1403  076C  1803               	skipnc
  1404  076D  2F4F               	goto	l4663
  1405                           
  1406                           ;XLD-DLZFQ-20180105_V1.0.C: 186: {
  1407                           ;XLD-DLZFQ-20180105_V1.0.C: 187: Flag_hot=1;
  1408  076E  1770               	bsf	_Flag_hot/(0+8),_Flag_hot& (0+7)
  1409                           
  1410                           ;XLD-DLZFQ-20180105_V1.0.C: 188: }
  1411  076F  0008               	return
  1412  0770                     l4669:	
  1413                           
  1414                           ;XLD-DLZFQ-20180105_V1.0.C: 199: else
  1415                           ;XLD-DLZFQ-20180105_V1.0.C: 200: {
  1416                           ;XLD-DLZFQ-20180105_V1.0.C: 201: Pid_count=0;
  1417  0770  01C2               	clrf	_Pid_count
  1418  0771  01C3               	clrf	_Pid_count+1
  1419                           
  1420                           ;XLD-DLZFQ-20180105_V1.0.C: 202: PID.iPriVal=0;
  1421  0772  01AC               	clrf	_PID+12
  1422  0773  01AD               	clrf	_PID+13
  1423  0774  2F4F               	goto	l4663
  1424  0775                     __end_of_PID_control:	
  1425                           
  1426                           	psect	text438
  1427  02FC                     __ptext438:	
  1428 ;; =============== function _PID_control ends ============
  1429                           
  1430                           
  1431 ;; *************** function _PID_operation *****************
  1432 ;; Defined at:
  1433 ;;		line 211 in file "E:\Elec DataSheet\\\SC8P171X_Demo  -- \ZFQ-Demo-Code -2018
      +0105_V1.0-1713s\XLD-DLZFQ-20180105_V1.0\XLD-DLZFQ-20180105_V1.0.C"
  1434 ;; Parameters:    Size  Location     Type
  1435 ;;		None
  1436 ;; Auto vars:     Size  Location     Type
  1437 ;;  Temp            6   14[BANK0 ] unsigned int [3]
  1438 ;;  PostSum         2   12[BANK0 ] unsigned int 
  1439 ;;  NegSum          2   10[BANK0 ] unsigned int 
  1440 ;; Return value:  Size  Location     Type
  1441 ;;		None               void
  1442 ;; Registers used:
  1443 ;;		wreg, fsr0l, fsr0h, status,2, status,0, btemp+1, pclath, cstack
  1444 ;; Tracked objects:
  1445 ;;		On entry : 60/0
  1446 ;;		On exit  : 160/0
  1447 ;;		Unchanged: FFE9F/0
  1448 ;; Data sizes:     COMMON   BANK0   BANK1
  1449 ;;      Params:         0       0       0
  1450 ;;      Locals:         0      10       0
  1451 ;;      Temps:          0       4       0
  1452 ;;      Totals:         0      14       0
  1453 ;;Total ram usage:       14 bytes
  1454 ;; Hardware stack levels used:    1
  1455 ;; Hardware stack levels required when called:    4
  1456 ;; This function calls:
  1457 ;;		___wmul
  1458 ;; This function is called by:
  1459 ;;		_PID_control
  1460 ;; This function uses a non-reentrant model
  1461 ;;
  1462  02FC                     _PID_operation:	
  1463                           
  1464                           ;XLD-DLZFQ-20180105_V1.0.C: 212: unsigned int Temp[3] = {0};
  1465                           
  1466                           ; Regs used in _PID_operation: [wreg-fsr0h+status,2+status,0+btemp+1+pclath+cstack]
  1467  02FC  3063               	movlw	PID_operation@Temp& (0+255)
  1468  02FD  0084               	movwf	4
  1469  02FE  3006               	movlw	6
  1470  02FF  00FF               	movwf	127
  1471  0300                     u2510:	
  1472  0300  1383               	bcf	3,7	;select IRP bank0
  1473  0301  0180               	clrf	0
  1474  0302  0A84               	incf	4,f
  1475  0303  0BFF               	decfsz	127,f
  1476  0304  2B00               	goto	u2510
  1477                           
  1478                           ;XLD-DLZFQ-20180105_V1.0.C: 213: unsigned int PostSum = 0;
  1479  0305  01E1               	clrf	PID_operation@PostSum
  1480  0306  01E2               	clrf	PID_operation@PostSum+1
  1481                           
  1482                           ;XLD-DLZFQ-20180105_V1.0.C: 214: unsigned int NegSum = 0;
  1483  0307  01DF               	clrf	PID_operation@NegSum
  1484  0308  01E0               	clrf	PID_operation@NegSum+1
  1485                           
  1486                           ;XLD-DLZFQ-20180105_V1.0.C: 215: if(PID.iSetVal > PID.iCurVal)
  1487  0309  082F               	movf	_PID+15,w
  1488  030A  0231               	subwf	_PID+17,w
  1489  030B  1D03               	skipz
  1490  030C  2B0F               	goto	u2525
  1491  030D  082E               	movf	_PID+14,w
  1492  030E  0230               	subwf	_PID+16,w
  1493  030F                     u2525:	
  1494  030F  1803               	skipnc
  1495  0310  2C06               	goto	l4645
  1496                           
  1497                           ;XLD-DLZFQ-20180105_V1.0.C: 216: {
  1498                           ;XLD-DLZFQ-20180105_V1.0.C: 217: if(PID.iSetVal - PID.iCurVal > 100)
  1499  0311  0830               	movf	_PID+16,w
  1500  0312  022E               	subwf	_PID+14,w
  1501  0313  00DB               	movwf	??_PID_operation
  1502  0314  0831               	movf	_PID+17,w
  1503  0315  1C03               	skipc
  1504  0316  0A31               	incf	_PID+17,w
  1505  0317  022F               	subwf	_PID+15,w
  1506  0318  00DC               	movwf	??_PID_operation+1
  1507  0319  3000               	movlw	0
  1508  031A  025C               	subwf	??_PID_operation+1,w
  1509  031B  3065               	movlw	101
  1510  031C  1903               	skipnz
  1511  031D  025B               	subwf	??_PID_operation,w
  1512  031E  1C03               	skipc
  1513  031F  2B25               	goto	l4585
  1514  0320                     l4583:	
  1515                           
  1516                           ;XLD-DLZFQ-20180105_V1.0.C: 218: PID.iPriVal = 500;
  1517  0320  30F4               	movlw	244
  1518  0321  00AC               	movwf	_PID+12
  1519  0322  3001               	movlw	1
  1520  0323  00AD               	movwf	_PID+13
  1521  0324  0008               	return
  1522  0325                     l4585:	
  1523                           
  1524                           ;XLD-DLZFQ-20180105_V1.0.C: 219: else
  1525                           ;XLD-DLZFQ-20180105_V1.0.C: 220: {
  1526                           ;XLD-DLZFQ-20180105_V1.0.C: 221: Temp[0] = PID.iSetVal - PID.iCurVal;
  1527  0325  0830               	movf	_PID+16,w
  1528  0326  022E               	subwf	_PID+14,w
  1529  0327  00E3               	movwf	PID_operation@Temp
  1530  0328  0831               	movf	_PID+17,w
  1531  0329  1C03               	skipc
  1532  032A  0A31               	incf	_PID+17,w
  1533  032B  022F               	subwf	_PID+15,w
  1534  032C  00E4               	movwf	PID_operation@Temp+1
  1535                           
  1536                           ;XLD-DLZFQ-20180105_V1.0.C: 222: PID.uEkFlag[1] = 0;
  1537  032D  01A7               	clrf	_PID+7
  1538                           
  1539                           ;XLD-DLZFQ-20180105_V1.0.C: 224: PID.liEkVal[2] = PID.liEkVal[1];
  1540  032E  0823               	movf	_PID+3,w
  1541  032F  00A5               	movwf	_PID+5
  1542  0330  0822               	movf	_PID+2,w
  1543  0331  00A4               	movwf	_PID+4
  1544                           
  1545                           ;XLD-DLZFQ-20180105_V1.0.C: 225: PID.liEkVal[1] = PID.liEkVal[0];
  1546  0332  0821               	movf	_PID+1,w
  1547  0333  00A3               	movwf	_PID+3
  1548  0334  0820               	movf	_PID,w
  1549  0335  00A2               	movwf	_PID+2
  1550                           
  1551                           ;XLD-DLZFQ-20180105_V1.0.C: 226: PID.liEkVal[0] = Temp[0];
  1552  0336  0864               	movf	PID_operation@Temp+1,w
  1553  0337  00A1               	movwf	_PID+1
  1554  0338  0863               	movf	PID_operation@Temp,w
  1555  0339  00A0               	movwf	_PID
  1556                           
  1557                           ;XLD-DLZFQ-20180105_V1.0.C: 228: if(PID.liEkVal[0] > PID.liEkVal[1])
  1558  033A  0821               	movf	_PID+1,w
  1559  033B  0223               	subwf	_PID+3,w
  1560  033C  1D03               	skipz
  1561  033D  2B40               	goto	u2545
  1562  033E  0820               	movf	_PID,w
  1563  033F  0222               	subwf	_PID+2,w
  1564  0340                     u2545:	
  1565  0340  1803               	skipnc
  1566  0341  2B4C               	goto	l4601
  1567                           
  1568                           ;XLD-DLZFQ-20180105_V1.0.C: 229: {
  1569                           ;XLD-DLZFQ-20180105_V1.0.C: 230: Temp[0] = PID.liEkVal[0] - PID.liEkVal[1];
  1570  0342  0822               	movf	_PID+2,w
  1571  0343  0220               	subwf	_PID,w
  1572  0344  00E3               	movwf	PID_operation@Temp
  1573  0345  0823               	movf	_PID+3,w
  1574  0346  1C03               	skipc
  1575  0347  0A23               	incf	_PID+3,w
  1576  0348  0221               	subwf	_PID+1,w
  1577  0349  00E4               	movwf	PID_operation@Temp+1
  1578                           
  1579                           ;XLD-DLZFQ-20180105_V1.0.C: 231: PID.uEkFlag[0] = 0;
  1580  034A  01A6               	clrf	_PID+6
  1581                           
  1582                           ;XLD-DLZFQ-20180105_V1.0.C: 232: }
  1583  034B  2B56               	goto	l4605
  1584  034C                     l4601:	
  1585                           
  1586                           ;XLD-DLZFQ-20180105_V1.0.C: 233: else
  1587                           ;XLD-DLZFQ-20180105_V1.0.C: 234: {
  1588                           ;XLD-DLZFQ-20180105_V1.0.C: 235: Temp[0] = PID.liEkVal[1] - PID.liEkVal[0];
  1589  034C  0820               	movf	_PID,w
  1590  034D  0222               	subwf	_PID+2,w
  1591  034E  00E3               	movwf	PID_operation@Temp
  1592  034F  0821               	movf	_PID+1,w
  1593  0350  1C03               	skipc
  1594  0351  0A21               	incf	_PID+1,w
  1595  0352  0223               	subwf	_PID+3,w
  1596  0353  00E4               	movwf	PID_operation@Temp+1
  1597                           
  1598                           ;XLD-DLZFQ-20180105_V1.0.C: 236: PID.uEkFlag[0] = 1;
  1599  0354  01A6               	clrf	_PID+6
  1600  0355  0AA6               	incf	_PID+6,f
  1601  0356                     l4605:	
  1602                           
  1603                           ;XLD-DLZFQ-20180105_V1.0.C: 237: }
  1604                           ;XLD-DLZFQ-20180105_V1.0.C: 239: Temp[2] = PID.liEkVal[1] << 1;
  1605  0356  1003               	clrc
  1606  0357  0D22               	rlf	_PID+2,w
  1607  0358  00E7               	movwf	PID_operation@Temp+4
  1608  0359  0D23               	rlf	_PID+3,w
  1609  035A  00E8               	movwf	PID_operation@Temp+5
  1610                           
  1611                           ;XLD-DLZFQ-20180105_V1.0.C: 240: if((PID.liEkVal[0] + PID.liEkVal[2]) > Temp[2])
  1612  035B  0820               	movf	_PID,w
  1613  035C  0724               	addwf	_PID+4,w
  1614  035D  00DB               	movwf	??_PID_operation
  1615  035E  0821               	movf	_PID+1,w
  1616  035F  1803               	skipnc
  1617  0360  0A21               	incf	_PID+1,w
  1618  0361  0725               	addwf	_PID+5,w
  1619  0362  00DC               	movwf	??_PID_operation+1
  1620  0363  0268               	subwf	PID_operation@Temp+5,w
  1621  0364  1D03               	skipz
  1622  0365  2B68               	goto	u2555
  1623  0366  085B               	movf	??_PID_operation,w
  1624  0367  0267               	subwf	PID_operation@Temp+4,w
  1625  0368                     u2555:	
  1626  0368  1803               	skipnc
  1627  0369  2B7C               	goto	l4613
  1628                           
  1629                           ;XLD-DLZFQ-20180105_V1.0.C: 241: {
  1630                           ;XLD-DLZFQ-20180105_V1.0.C: 242: Temp[2] = (PID.liEkVal[0] + PID.liEkVal[2]) - Temp[2];
  1631  036A  0867               	movf	PID_operation@Temp+4,w
  1632  036B  0224               	subwf	_PID+4,w
  1633  036C  00DB               	movwf	??_PID_operation
  1634  036D  0868               	movf	PID_operation@Temp+5,w
  1635  036E  1C03               	skipc
  1636  036F  0A68               	incf	PID_operation@Temp+5,w
  1637  0370  0225               	subwf	_PID+5,w
  1638  0371  00DC               	movwf	??_PID_operation+1
  1639  0372  0820               	movf	_PID,w
  1640  0373  075B               	addwf	??_PID_operation,w
  1641  0374  00E7               	movwf	PID_operation@Temp+4
  1642  0375  0821               	movf	_PID+1,w
  1643  0376  1803               	skipnc
  1644  0377  0A21               	incf	_PID+1,w
  1645  0378  075C               	addwf	??_PID_operation+1,w
  1646  0379  00E8               	movwf	PID_operation@Temp+5
  1647                           
  1648                           ;XLD-DLZFQ-20180105_V1.0.C: 243: PID.uEkFlag[2]=0;
  1649  037A  01A8               	clrf	_PID+8
  1650                           
  1651                           ;XLD-DLZFQ-20180105_V1.0.C: 244: }
  1652  037B  2B95               	goto	l4617
  1653  037C                     l4613:	
  1654                           
  1655                           ;XLD-DLZFQ-20180105_V1.0.C: 245: else
  1656                           ;XLD-DLZFQ-20180105_V1.0.C: 246: {
  1657                           ;XLD-DLZFQ-20180105_V1.0.C: 247: Temp[2] = Temp[2] - (PID.liEkVal[0] + PID.liEkVal[2]);
  1658  037C  0920               	comf	_PID,w
  1659  037D  00DB               	movwf	??_PID_operation
  1660  037E  0921               	comf	_PID+1,w
  1661  037F  00DC               	movwf	??_PID_operation+1
  1662  0380  0ADB               	incf	??_PID_operation,f
  1663  0381  1903               	skipnz
  1664  0382  0ADC               	incf	??_PID_operation+1,f
  1665  0383  0824               	movf	_PID+4,w
  1666  0384  025B               	subwf	??_PID_operation,w
  1667  0385  00DD               	movwf	??_PID_operation+2
  1668  0386  0825               	movf	_PID+5,w
  1669  0387  1C03               	skipc
  1670  0388  0A25               	incf	_PID+5,w
  1671  0389  025C               	subwf	??_PID_operation+1,w
  1672  038A  00DE               	movwf	??_PID_operation+3
  1673  038B  0867               	movf	PID_operation@Temp+4,w
  1674  038C  075D               	addwf	??_PID_operation+2,w
  1675  038D  00E7               	movwf	PID_operation@Temp+4
  1676  038E  0868               	movf	PID_operation@Temp+5,w
  1677  038F  1803               	skipnc
  1678  0390  0A68               	incf	PID_operation@Temp+5,w
  1679  0391  075E               	addwf	??_PID_operation+3,w
  1680  0392  00E8               	movwf	PID_operation@Temp+5
  1681                           
  1682                           ;XLD-DLZFQ-20180105_V1.0.C: 248: PID.uEkFlag[2] = 1;
  1683  0393  01A8               	clrf	_PID+8
  1684  0394  0AA8               	incf	_PID+8,f
  1685  0395                     l4617:	
  1686                           
  1687                           ;XLD-DLZFQ-20180105_V1.0.C: 249: }
  1688                           ;XLD-DLZFQ-20180105_V1.0.C: 251: Temp[0] = PID.uKP_Coe * Temp[0];
  1689  0395  0829               	movf	_PID+9,w
  1690  0396  00D5               	movwf	?___wmul
  1691  0397  01D6               	clrf	?___wmul+1
  1692  0398  0864               	movf	PID_operation@Temp+1,w
  1693  0399  00D8               	movwf	?___wmul+3
  1694  039A  0863               	movf	PID_operation@Temp,w
  1695  039B  00D7               	movwf	?___wmul+2
  1696  039C  204F               	fcall	___wmul
  1697  039D  0856               	movf	?___wmul+1,w
  1698  039E  00E4               	movwf	PID_operation@Temp+1
  1699  039F  0855               	movf	?___wmul,w
  1700  03A0  00E3               	movwf	PID_operation@Temp
  1701                           
  1702                           ;XLD-DLZFQ-20180105_V1.0.C: 252: Temp[1] = PID.uKI_Coe * PID.liEkVal[0];
  1703  03A1  082A               	movf	_PID+10,w
  1704  03A2  00D5               	movwf	?___wmul
  1705  03A3  01D6               	clrf	?___wmul+1
  1706  03A4  0821               	movf	_PID+1,w
  1707  03A5  00D8               	movwf	?___wmul+3
  1708  03A6  0820               	movf	_PID,w
  1709  03A7  00D7               	movwf	?___wmul+2
  1710  03A8  204F               	fcall	___wmul
  1711  03A9  0856               	movf	?___wmul+1,w
  1712  03AA  00E6               	movwf	PID_operation@Temp+3
  1713  03AB  0855               	movf	?___wmul,w
  1714  03AC  00E5               	movwf	PID_operation@Temp+2
  1715                           
  1716                           ;XLD-DLZFQ-20180105_V1.0.C: 253: Temp[2] = PID.uKD_Coe * Temp[2];
  1717  03AD  082B               	movf	_PID+11,w
  1718  03AE  00D5               	movwf	?___wmul
  1719  03AF  01D6               	clrf	?___wmul+1
  1720  03B0  0868               	movf	PID_operation@Temp+5,w
  1721  03B1  00D8               	movwf	?___wmul+3
  1722  03B2  0867               	movf	PID_operation@Temp+4,w
  1723  03B3  00D7               	movwf	?___wmul+2
  1724  03B4  204F               	fcall	___wmul
  1725  03B5  0856               	movf	?___wmul+1,w
  1726  03B6  00E8               	movwf	PID_operation@Temp+5
  1727  03B7  0855               	movf	?___wmul,w
  1728  03B8  00E7               	movwf	PID_operation@Temp+4
  1729                           
  1730                           ;XLD-DLZFQ-20180105_V1.0.C: 255: if(PID.uEkFlag[0] == 0)
  1731  03B9  08A6               	movf	_PID+6,f
  1732  03BA  1D03               	skipz
  1733  03BB  2BC3               	goto	l4627
  1734                           
  1735                           ;XLD-DLZFQ-20180105_V1.0.C: 256: PostSum += Temp[0];
  1736  03BC  0863               	movf	PID_operation@Temp,w
  1737  03BD  07E1               	addwf	PID_operation@PostSum,f
  1738  03BE  1803               	skipnc
  1739  03BF  0AE2               	incf	PID_operation@PostSum+1,f
  1740  03C0  0864               	movf	PID_operation@Temp+1,w
  1741  03C1  07E2               	addwf	PID_operation@PostSum+1,f
  1742  03C2  2BC9               	goto	l4629
  1743  03C3                     l4627:	
  1744                           
  1745                           ;XLD-DLZFQ-20180105_V1.0.C: 257: else
  1746                           ;XLD-DLZFQ-20180105_V1.0.C: 258: NegSum += Temp[0];
  1747  03C3  0863               	movf	PID_operation@Temp,w
  1748  03C4  07DF               	addwf	PID_operation@NegSum,f
  1749  03C5  1803               	skipnc
  1750  03C6  0AE0               	incf	PID_operation@NegSum+1,f
  1751  03C7  0864               	movf	PID_operation@Temp+1,w
  1752  03C8  07E0               	addwf	PID_operation@NegSum+1,f
  1753  03C9                     l4629:	
  1754                           
  1755                           ;XLD-DLZFQ-20180105_V1.0.C: 260: if(PID.uEkFlag[1] == 0)
  1756  03C9  08A7               	movf	_PID+7,f
  1757  03CA  1D03               	skipz
  1758  03CB  2BD2               	goto	l4633
  1759                           
  1760                           ;XLD-DLZFQ-20180105_V1.0.C: 261: PostSum += Temp[1];
  1761  03CC  0865               	movf	PID_operation@Temp+2,w
  1762  03CD  07E1               	addwf	PID_operation@PostSum,f
  1763  03CE  1803               	skipnc
  1764  03CF  0AE2               	incf	PID_operation@PostSum+1,f
  1765  03D0  0866               	movf	PID_operation@Temp+3,w
  1766  03D1  2BDA               	goto	L1
  1767  03D2                     l4633:	
  1768                           
  1769                           ;XLD-DLZFQ-20180105_V1.0.C: 262: else
  1770                           ;XLD-DLZFQ-20180105_V1.0.C: 264: if(PID.uEkFlag[2]==0)
  1771  03D2  08A8               	movf	_PID+8,f
  1772  03D3  1D03               	skipz
  1773  03D4  2BDC               	goto	l4637
  1774                           
  1775                           ;XLD-DLZFQ-20180105_V1.0.C: 265: PostSum += Temp[2];
  1776  03D5  0867               	movf	PID_operation@Temp+4,w
  1777  03D6  07E1               	addwf	PID_operation@PostSum,f
  1778  03D7  1803               	skipnc
  1779  03D8  0AE2               	incf	PID_operation@PostSum+1,f
  1780  03D9  0868               	movf	PID_operation@Temp+5,w
  1781  03DA                     L1:	
  1782  03DA  07E2               	addwf	PID_operation@PostSum+1,f
  1783  03DB  2BE2               	goto	l2046
  1784  03DC                     l4637:	
  1785                           
  1786                           ;XLD-DLZFQ-20180105_V1.0.C: 266: else
  1787                           ;XLD-DLZFQ-20180105_V1.0.C: 267: NegSum += Temp[2];
  1788  03DC  0867               	movf	PID_operation@Temp+4,w
  1789  03DD  07DF               	addwf	PID_operation@NegSum,f
  1790  03DE  1803               	skipnc
  1791  03DF  0AE0               	incf	PID_operation@NegSum+1,f
  1792  03E0  0868               	movf	PID_operation@Temp+5,w
  1793  03E1  07E0               	addwf	PID_operation@NegSum+1,f
  1794  03E2                     l2046:	
  1795                           
  1796                           ;XLD-DLZFQ-20180105_V1.0.C: 269: PostSum += PID.iPriVal;
  1797  03E2  082C               	movf	_PID+12,w
  1798  03E3  07E1               	addwf	PID_operation@PostSum,f
  1799  03E4  1803               	skipnc
  1800  03E5  0AE2               	incf	PID_operation@PostSum+1,f
  1801  03E6  082D               	movf	_PID+13,w
  1802  03E7  07E2               	addwf	PID_operation@PostSum+1,f
  1803                           
  1804                           ;XLD-DLZFQ-20180105_V1.0.C: 270: if(PostSum > NegSum)
  1805  03E8  0862               	movf	PID_operation@PostSum+1,w
  1806  03E9  0260               	subwf	PID_operation@NegSum+1,w
  1807  03EA  1D03               	skipz
  1808  03EB  2BEE               	goto	u2595
  1809  03EC  0861               	movf	PID_operation@PostSum,w
  1810  03ED  025F               	subwf	PID_operation@NegSum,w
  1811  03EE                     u2595:	
  1812  03EE  1803               	skipnc
  1813  03EF  2C06               	goto	l4645
  1814                           
  1815                           ;XLD-DLZFQ-20180105_V1.0.C: 271: {
  1816                           ;XLD-DLZFQ-20180105_V1.0.C: 272: Temp[0] = PostSum - NegSum;
  1817  03F0  0862               	movf	PID_operation@PostSum+1,w
  1818  03F1  00E4               	movwf	PID_operation@Temp+1
  1819  03F2  0861               	movf	PID_operation@PostSum,w
  1820  03F3  00E3               	movwf	PID_operation@Temp
  1821  03F4  085F               	movf	PID_operation@NegSum,w
  1822  03F5  02E3               	subwf	PID_operation@Temp,f
  1823  03F6  0860               	movf	PID_operation@NegSum+1,w
  1824  03F7  1C03               	skipc
  1825  03F8  03E4               	decf	PID_operation@Temp+1,f
  1826  03F9  02E4               	subwf	PID_operation@Temp+1,f
  1827                           
  1828                           ;XLD-DLZFQ-20180105_V1.0.C: 273: if(Temp[0] < 500 )
  1829  03FA  3001               	movlw	1
  1830  03FB  0264               	subwf	PID_operation@Temp+1,w
  1831  03FC  30F4               	movlw	244
  1832  03FD  1903               	skipnz
  1833  03FE  0263               	subwf	PID_operation@Temp,w
  1834  03FF  1803               	skipnc
  1835  0400  2B20               	goto	l4583
  1836                           
  1837                           ;XLD-DLZFQ-20180105_V1.0.C: 274: PID.iPriVal = Temp[0];
  1838  0401  0864               	movf	PID_operation@Temp+1,w
  1839  0402  00AD               	movwf	_PID+13
  1840  0403  0863               	movf	PID_operation@Temp,w
  1841  0404  00AC               	movwf	_PID+12
  1842  0405  0008               	return
  1843  0406                     l4645:	
  1844                           
  1845                           ;XLD-DLZFQ-20180105_V1.0.C: 278: else
  1846                           ;XLD-DLZFQ-20180105_V1.0.C: 279: PID.iPriVal = 0;
  1847  0406  01AC               	clrf	_PID+12
  1848  0407  01AD               	clrf	_PID+13
  1849  0408  0008               	return
  1850  0409                     __end_of_PID_operation:	
  1851                           
  1852                           	psect	text439
  1853  05EC                     __ptext439:	
  1854 ;; =============== function _PID_operation ends ============
  1855                           
  1856                           
  1857 ;; *************** function _Kscan *****************
  1858 ;; Defined at:
  1859 ;;		line 4 in file "E:\Elec DataSheet\\\SC8P171X_Demo  -- \ZFQ-Demo-Code -201801
      +05_V1.0-1713s\XLD-DLZFQ-20180105_V1.0\Kscan.c"
  1860 ;; Parameters:    Size  Location     Type
  1861 ;;		None
  1862 ;; Auto vars:     Size  Location     Type
  1863 ;;		None
  1864 ;; Return value:  Size  Location     Type
  1865 ;;		None               void
  1866 ;; Registers used:
  1867 ;;		wreg, status,2, status,0, pclath, cstack
  1868 ;; Tracked objects:
  1869 ;;		On entry : 60/0
  1870 ;;		On exit  : 60/0
  1871 ;;		Unchanged: FFE00/0
  1872 ;; Data sizes:     COMMON   BANK0   BANK1
  1873 ;;      Params:         0       0       0
  1874 ;;      Locals:         0       0       0
  1875 ;;      Temps:          0       0       0
  1876 ;;      Totals:         0       0       0
  1877 ;;Total ram usage:        0 bytes
  1878 ;; Hardware stack levels used:    1
  1879 ;; Hardware stack levels required when called:    4
  1880 ;; This function calls:
  1881 ;;		_Delay
  1882 ;; This function is called by:
  1883 ;;		_main
  1884 ;; This function uses a non-reentrant model
  1885 ;;
  1886  05EC                     _Kscan:	
  1887                           
  1888                           ;Kscan.c: 5: COMEN = 0B00001111;
  1889                           
  1890                           ; Regs used in _Kscan: [wreg+status,2+status,0+pclath+cstack]
  1891  05EC  300F               	movlw	15
  1892  05ED  1683               	bsf	3,5	;RP0=1, select bank3
  1893  05EE  1703               	bsf	3,6	;RP1=1, select bank3
  1894  05EF  0097               	movwf	23	;volatile
  1895                           
  1896                           ;Kscan.c: 6: TRISA|=0x0F;
  1897  05F0  1303               	bcf	3,6	;RP1=0, select bank1
  1898  05F1  0485               	iorwf	5,f	;volatile
  1899                           
  1900                           ;Kscan.c: 7: WPUA=0X0E;
  1901  05F2  300E               	movlw	14
  1902  05F3  1703               	bsf	3,6	;RP1=1, select bank3
  1903  05F4  008E               	movwf	14	;volatile
  1904                           
  1905                           ;Kscan.c: 9: TRISC|=0X0F;
  1906  05F5  300F               	movlw	15
  1907  05F6  1303               	bcf	3,6	;RP1=0, select bank1
  1908  05F7  0487               	iorwf	7,f	;volatile
  1909                           
  1910                           ;Kscan.c: 11: Delay(10);
  1911  05F8  300A               	movlw	10
  1912  05F9  20CE               	fcall	_Delay
  1913                           
  1914                           ;Kscan.c: 13: Keyflash=0;
  1915  05FA  01CE               	clrf	_Keyflash
  1916                           
  1917                           ;Kscan.c: 14: if(!RA3)
  1918  05FB  1985               	btfsc	5,3
  1919  05FC  2E00               	goto	l2708
  1920                           
  1921                           ;Kscan.c: 15: {
  1922                           ;Kscan.c: 16: Keyflash=1;
  1923  05FD  01CE               	clrf	_Keyflash
  1924  05FE  0ACE               	incf	_Keyflash,f
  1925                           
  1926                           ;Kscan.c: 17: }
  1927  05FF  2E08               	goto	l2709
  1928  0600                     l2708:	
  1929                           
  1930                           ;Kscan.c: 18: else if(!RA1)
  1931  0600  1885               	btfsc	5,1
  1932  0601  2E04               	goto	l2710
  1933                           
  1934                           ;Kscan.c: 19: {
  1935                           ;Kscan.c: 20: Keyflash=2;
  1936  0602  3002               	movlw	2
  1937  0603  2E07               	goto	L2
  1938  0604                     l2710:	
  1939                           ;Kscan.c: 21: }
  1940                           
  1941                           
  1942                           ;Kscan.c: 22: else if(!RA2)
  1943  0604  1905               	btfsc	5,2
  1944  0605  2E08               	goto	l2709
  1945                           
  1946                           ;Kscan.c: 23: {
  1947                           ;Kscan.c: 24: Keyflash=3;
  1948  0606  3003               	movlw	3
  1949  0607                     L2:	
  1950  0607  00CE               	movwf	_Keyflash
  1951  0608                     l2709:	
  1952                           
  1953                           ;Kscan.c: 25: }
  1954                           ;Kscan.c: 27: if(Keyflash)
  1955  0608  084E               	movf	_Keyflash,w
  1956  0609  1903               	btfsc	3,2
  1957  060A  2E31               	goto	l2713
  1958                           
  1959                           ;Kscan.c: 28: {
  1960                           ;Kscan.c: 29: if(Keyflash==Keyold)
  1961  060B  084E               	movf	_Keyflash,w
  1962  060C  064F               	xorwf	_Keyold,w
  1963  060D  1D03               	skipz
  1964  060E  2E26               	goto	l4561
  1965                           
  1966                           ;Kscan.c: 30: {
  1967                           ;Kscan.c: 32: if(Keyflash!=1)
  1968  060F  034E               	decf	_Keyflash,w
  1969                           
  1970                           ;Kscan.c: 33: {
  1971                           ;Kscan.c: 34: if(!Flag_en)
  1972  0610  19F0               	btfsc	_Flag_en/(0+8),_Flag_en& (0+7)
  1973  0611  0008               	return
  1974  0612  1903               	skipnz
  1975  0613  2E17               	goto	L3
  1976                           
  1977                           ;Kscan.c: 35: {
  1978                           ;Kscan.c: 36: Flag_keyf=1;
  1979  0614  17F0               	bsf	_Flag_keyf/(0+8),_Flag_keyf& (0+7)
  1980                           
  1981                           ;Kscan.c: 37: Flag_en=1;
  1982  0615  15F0               	bsf	_Flag_en/(0+8),_Flag_en& (0+7)
  1983  0616  0008               	return
  1984  0617                     L3:	
  1985                           ;Kscan.c: 41: else
  1986                           ;Kscan.c: 42: {
  1987                           ;Kscan.c: 43: if(!Flag_en)
  1988                           
  1989                           
  1990                           ;Kscan.c: 44: {
  1991                           ;Kscan.c: 45: Keyc1++;
  1992  0617  0AC0               	incf	_Keyc1,f
  1993  0618  1903               	skipnz
  1994  0619  0AC1               	incf	_Keyc1+1,f
  1995                           
  1996                           ;Kscan.c: 46: if(Keyc1>=400)
  1997  061A  3001               	movlw	1
  1998  061B  0241               	subwf	_Keyc1+1,w
  1999  061C  3090               	movlw	144
  2000  061D  1903               	skipnz
  2001  061E  0240               	subwf	_Keyc1,w
  2002  061F  1C03               	skipc
  2003  0620  0008               	return
  2004                           
  2005                           ;Kscan.c: 47: {
  2006                           ;Kscan.c: 48: Keyc1=0;
  2007  0621  01C0               	clrf	_Keyc1
  2008  0622  01C1               	clrf	_Keyc1+1
  2009                           
  2010                           ;Kscan.c: 49: Flag_keyf=1;
  2011  0623  17F0               	bsf	_Flag_keyf/(0+8),_Flag_keyf& (0+7)
  2012                           
  2013                           ;Kscan.c: 50: Flag_en=1;
  2014  0624  15F0               	bsf	_Flag_en/(0+8),_Flag_en& (0+7)
  2015  0625  0008               	return
  2016  0626                     l4561:	
  2017  0626  3005               	movlw	5
  2018                           
  2019                           ;Kscan.c: 59: else
  2020                           ;Kscan.c: 60: {
  2021                           ;Kscan.c: 61: Keyc1=0;
  2022  0627  01C0               	clrf	_Keyc1
  2023  0628  01C1               	clrf	_Keyc1+1
  2024                           
  2025                           ;Kscan.c: 62: Keyc++;
  2026  0629  0ACD               	incf	_Keyc,f
  2027                           
  2028                           ;Kscan.c: 63: if(Keyc>=5)
  2029  062A  024D               	subwf	_Keyc,w
  2030  062B  1C03               	skipc
  2031  062C  0008               	return
  2032                           
  2033                           ;Kscan.c: 64: {
  2034                           ;Kscan.c: 65: Keyc=0;
  2035  062D  01CD               	clrf	_Keyc
  2036                           
  2037                           ;Kscan.c: 66: Keyold=Keyflash;
  2038  062E  084E               	movf	_Keyflash,w
  2039  062F  00CF               	movwf	_Keyold
  2040  0630  0008               	return
  2041  0631                     l2713:	
  2042                           ;Kscan.c: 67: }
  2043                           ;Kscan.c: 68: }
  2044                           ;Kscan.c: 71: }
  2045                           
  2046                           
  2047                           ;Kscan.c: 72: else
  2048                           ;Kscan.c: 73: {
  2049                           ;Kscan.c: 74: Flag_en=0;
  2050  0631  11F0               	bcf	_Flag_en/(0+8),_Flag_en& (0+7)
  2051                           
  2052                           ;Kscan.c: 75: Flag_keyf=0;
  2053  0632  13F0               	bcf	_Flag_keyf/(0+8),_Flag_keyf& (0+7)
  2054                           
  2055                           ;Kscan.c: 76: Keyc=0;
  2056  0633  01CD               	clrf	_Keyc
  2057                           
  2058                           ;Kscan.c: 77: Keyc1=0;
  2059  0634  01C0               	clrf	_Keyc1
  2060  0635  01C1               	clrf	_Keyc1+1
  2061  0636  0008               	return
  2062  0637                     __end_of_Kscan:	
  2063                           
  2064                           	psect	text440
  2065  06BE                     __ptext440:	
  2066 ;; =============== function _Kscan ends ============
  2067                           
  2068                           
  2069 ;; *************** function _source_v *****************
  2070 ;; Defined at:
  2071 ;;		line 134 in file "E:\Elec DataSheet\\\SC8P171X_Demo  -- \ZFQ-Demo-Code -2018
      +0105_V1.0-1713s\XLD-DLZFQ-20180105_V1.0\AD.c"
  2072 ;; Parameters:    Size  Location     Type
  2073 ;;  i               1    wreg     unsigned char 
  2074 ;; Auto vars:     Size  Location     Type
  2075 ;;  i               1    5[BANK0 ] unsigned char 
  2076 ;;  k               2    9[BANK0 ] unsigned int 
  2077 ;;  vsum            2    6[BANK0 ] unsigned int 
  2078 ;;  vmax            1   12[BANK0 ] unsigned char 
  2079 ;;  vresult         1   11[BANK0 ] unsigned char 
  2080 ;;  vtimes          1    8[BANK0 ] unsigned char 
  2081 ;; Return value:  Size  Location     Type
  2082 ;;		None               void
  2083 ;; Registers used:
  2084 ;;		wreg, status,2, status,0, pclath, cstack
  2085 ;; Tracked objects:
  2086 ;;		On entry : 60/20
  2087 ;;		On exit  : 60/0
  2088 ;;		Unchanged: FFE00/0
  2089 ;; Data sizes:     COMMON   BANK0   BANK1
  2090 ;;      Params:         0       0       0
  2091 ;;      Locals:         0       8       0
  2092 ;;      Temps:          0       2       0
  2093 ;;      Totals:         0      10       0
  2094 ;;Total ram usage:       10 bytes
  2095 ;; Hardware stack levels used:    1
  2096 ;; Hardware stack levels required when called:    4
  2097 ;; This function calls:
  2098 ;;		_Ad_sample
  2099 ;; This function is called by:
  2100 ;;		_main
  2101 ;; This function uses a non-reentrant model
  2102 ;;
  2103  06BE                     _source_v:	
  2104                           
  2105                           ; Regs used in _source_v: [wreg+status,2+status,0+pclath+cstack]
  2106                           ;source_v@i stored from wreg
  2107  06BE  1283               	bcf	3,5	;RP0=0, select bank0
  2108  06BF  00DA               	movwf	source_v@i
  2109                           
  2110                           ;AD.c: 135: unsigned int k,vsum=0;
  2111  06C0  01DB               	clrf	source_v@vsum
  2112  06C1  01DC               	clrf	source_v@vsum+1
  2113                           
  2114                           ;AD.c: 136: unsigned char vresult,vmax=0,vtimes=0;
  2115  06C2  01E1               	clrf	source_v@vmax
  2116  06C3  01DD               	clrf	source_v@vtimes
  2117                           
  2118                           ;AD.c: 137: for(k=0;k<2000;k++)
  2119  06C4  01DE               	clrf	source_v@k
  2120  06C5  01DF               	clrf	source_v@k+1
  2121  06C6                     l4499:	
  2122                           
  2123                           ;AD.c: 138: {
  2124                           ;AD.c: 139: if(Ad_sample(i))
  2125  06C6  085A               	movf	source_v@i,w
  2126  06C7  2081               	fcall	_Ad_sample
  2127  06C8  3A00               	xorlw	0
  2128  06C9  1903               	skipnz
  2129  06CA  2EE9               	goto	l4517
  2130                           
  2131                           ;AD.c: 140: {
  2132                           ;AD.c: 141: vsum += ADRESH;
  2133  06CB  081E               	movf	30,w	;volatile
  2134  06CC  07DB               	addwf	source_v@vsum,f
  2135  06CD  1803               	skipnc
  2136  06CE  0ADC               	incf	source_v@vsum+1,f
  2137                           
  2138                           ;AD.c: 142: if(++vtimes >= 4)
  2139  06CF  3004               	movlw	4
  2140  06D0  0ADD               	incf	source_v@vtimes,f
  2141  06D1  025D               	subwf	source_v@vtimes,w
  2142  06D2  1C03               	skipc
  2143  06D3  2EE9               	goto	l4517
  2144                           
  2145                           ;AD.c: 143: {
  2146                           ;AD.c: 144: vresult = vsum >> 2;
  2147  06D4  085C               	movf	source_v@vsum+1,w
  2148  06D5  00D9               	movwf	??_source_v+1
  2149  06D6  085B               	movf	source_v@vsum,w
  2150  06D7  00D8               	movwf	??_source_v
  2151  06D8  1003               	clrc
  2152  06D9  0CD9               	rrf	??_source_v+1,f
  2153  06DA  0CD8               	rrf	??_source_v,f
  2154  06DB  1003               	clrc
  2155  06DC  0CD9               	rrf	??_source_v+1,f
  2156  06DD  0CD8               	rrf	??_source_v,f
  2157  06DE  0858               	movf	??_source_v,w
  2158  06DF  00E0               	movwf	source_v@vresult
  2159                           
  2160                           ;AD.c: 145: if(vresult>vmax)
  2161  06E0  0261               	subwf	source_v@vmax,w
  2162  06E1  1803               	skipnc
  2163  06E2  2EE5               	goto	l4511
  2164                           
  2165                           ;AD.c: 146: {
  2166                           ;AD.c: 147: vmax=vresult;
  2167  06E3  0860               	movf	source_v@vresult,w
  2168  06E4  00E1               	movwf	source_v@vmax
  2169  06E5                     l4511:	
  2170                           
  2171                           ;AD.c: 148: }
  2172                           ;AD.c: 149: vsum = 0;
  2173  06E5  01DB               	clrf	source_v@vsum
  2174  06E6  01DC               	clrf	source_v@vsum+1
  2175                           
  2176                           ;AD.c: 150: vtimes = 0;
  2177  06E7  01DD               	clrf	source_v@vtimes
  2178  06E8  0064               	clrwdt	;#
  2179  06E9                     l4517:	
  2180  06E9  1283               	bcf	3,5	;RP0=0, select bank0
  2181  06EA  1303               	bcf	3,6	;RP1=0, select bank0
  2182  06EB  0ADE               	incf	source_v@k,f
  2183  06EC  1903               	skipnz
  2184  06ED  0ADF               	incf	source_v@k+1,f
  2185  06EE  3007               	movlw	7
  2186  06EF  025F               	subwf	source_v@k+1,w
  2187  06F0  30D0               	movlw	208
  2188  06F1  1903               	skipnz
  2189  06F2  025E               	subwf	source_v@k,w
  2190  06F3  1C03               	skipc
  2191  06F4  2EC6               	goto	l4499
  2192                           
  2193                           ;AD.c: 152: }
  2194                           ;AD.c: 153: }
  2195                           ;AD.c: 154: }
  2196                           ;AD.c: 156: if(vmax>130)
  2197  06F5  3083               	movlw	131
  2198  06F6  0261               	subwf	source_v@vmax,w
  2199  06F7  1C03               	skipc
  2200  06F8  2EFB               	goto	l1344
  2201                           
  2202                           ;AD.c: 157: {
  2203                           ;AD.c: 158: Flag_HV=1;
  2204  06F9  1470               	bsf	_Flag_HV/(0+8),_Flag_HV& (0+7)
  2205                           
  2206                           ;AD.c: 159: }
  2207  06FA  0008               	return
  2208  06FB                     l1344:	
  2209                           
  2210                           ;AD.c: 160: else
  2211                           ;AD.c: 161: {
  2212                           ;AD.c: 162: Flag_HV=0;
  2213  06FB  1070               	bcf	_Flag_HV/(0+8),_Flag_HV& (0+7)
  2214  06FC  0008               	return
  2215  06FD                     __end_of_source_v:	
  2216                           
  2217                           	psect	text441
  2218  051B                     __ptext441:	
  2219 ;; =============== function _source_v ends ============
  2220                           
  2221                           
  2222 ;; *************** function _Ad_testing *****************
  2223 ;; Defined at:
  2224 ;;		line 36 in file "E:\Elec DataSheet\\\SC8P171X_Demo  -- \ZFQ-Demo-Code -20180
      +105_V1.0-1713s\XLD-DLZFQ-20180105_V1.0\AD.c"
  2225 ;; Parameters:    Size  Location     Type
  2226 ;;  i               1    wreg     unsigned char 
  2227 ;; Auto vars:     Size  Location     Type
  2228 ;;  i               1    5[BANK0 ] unsigned char 
  2229 ;;  Ad_temp         2    6[BANK0 ] unsigned int 
  2230 ;; Return value:  Size  Location     Type
  2231 ;;		None               void
  2232 ;; Registers used:
  2233 ;;		wreg, status,2, status,0, pclath, cstack
  2234 ;; Tracked objects:
  2235 ;;		On entry : 0/0
  2236 ;;		On exit  : 60/0
  2237 ;;		Unchanged: FFE00/0
  2238 ;; Data sizes:     COMMON   BANK0   BANK1
  2239 ;;      Params:         0       0       0
  2240 ;;      Locals:         0       3       0
  2241 ;;      Temps:          0       2       0
  2242 ;;      Totals:         0       5       0
  2243 ;;Total ram usage:        5 bytes
  2244 ;; Hardware stack levels used:    1
  2245 ;; Hardware stack levels required when called:    4
  2246 ;; This function calls:
  2247 ;;		_Ad_sample
  2248 ;;		_Check_Ntc
  2249 ;; This function is called by:
  2250 ;;		_main
  2251 ;; This function uses a non-reentrant model
  2252 ;;
  2253  051B                     _Ad_testing:	
  2254                           
  2255                           ; Regs used in _Ad_testing: [wreg+status,2+status,0+pclath+cstack]
  2256                           ;Ad_testing@i stored from wreg
  2257  051B  1283               	bcf	3,5	;RP0=0, select bank0
  2258  051C  1303               	bcf	3,6	;RP1=0, select bank0
  2259  051D  00DA               	movwf	Ad_testing@i
  2260                           
  2261                           ;AD.c: 38: unsigned int Ad_temp;
  2262                           ;AD.c: 40: if(Ad_sample(i))
  2263  051E  2081               	fcall	_Ad_sample
  2264  051F  3A00               	xorlw	0
  2265  0520  1903               	skipnz
  2266  0521  2D8E               	goto	l4489
  2267                           
  2268                           ;AD.c: 41: {
  2269                           ;AD.c: 42: Ad_temp=(ADRESH<<2)+(ADRESL>>6);
  2270  0522  081E               	movf	30,w	;volatile
  2271  0523  00DB               	movwf	Ad_testing@Ad_temp
  2272  0524  01DC               	clrf	Ad_testing@Ad_temp+1
  2273  0525  1003               	clrc
  2274  0526  0DDB               	rlf	Ad_testing@Ad_temp,f
  2275  0527  0DDC               	rlf	Ad_testing@Ad_temp+1,f
  2276  0528  1003               	clrc
  2277  0529  0DDB               	rlf	Ad_testing@Ad_temp,f
  2278  052A  0DDC               	rlf	Ad_testing@Ad_temp+1,f
  2279  052B  1683               	bsf	3,5	;RP0=1, select bank1
  2280  052C  081E               	movf	30,w	;volatile
  2281  052D  1283               	bcf	3,5	;RP0=0, select bank0
  2282  052E  00D8               	movwf	??_Ad_testing
  2283  052F  3006               	movlw	6
  2284  0530                     u2315:	
  2285  0530  1003               	clrc
  2286  0531  0CD8               	rrf	??_Ad_testing,f
  2287  0532  3EFF               	addlw	-1
  2288  0533  1D03               	skipz
  2289  0534  2D30               	goto	u2315
  2290  0535  0858               	movf	??_Ad_testing,w
  2291  0536  07DB               	addwf	Ad_testing@Ad_temp,f
  2292  0537  1803               	skipnc
  2293  0538  0ADC               	incf	Ad_testing@Ad_temp+1,f
  2294                           
  2295                           ;AD.c: 44: if(0 == Adtimes)
  2296  0539  08CC               	movf	_Adtimes,f
  2297  053A  1D03               	skipz
  2298  053B  2D42               	goto	l4465
  2299  053C  30FF               	movlw	255
  2300                           
  2301                           ;AD.c: 45: {
  2302                           ;AD.c: 46: Admax = 0x0000;
  2303  053D  01B8               	clrf	_Admax
  2304  053E  01B9               	clrf	_Admax+1
  2305                           
  2306                           ;AD.c: 47: Admin = 0xffff;
  2307  053F  00BA               	movwf	_Admin
  2308  0540  00BB               	movwf	_Admin+1
  2309                           
  2310                           ;AD.c: 48: }
  2311  0541  2D5B               	goto	l1316
  2312  0542                     l4465:	
  2313                           
  2314                           ;AD.c: 49: else if(Ad_temp > Admax)
  2315  0542  085C               	movf	Ad_testing@Ad_temp+1,w
  2316  0543  0239               	subwf	_Admax+1,w
  2317  0544  1D03               	skipz
  2318  0545  2D48               	goto	u2335
  2319  0546  085B               	movf	Ad_testing@Ad_temp,w
  2320  0547  0238               	subwf	_Admax,w
  2321  0548                     u2335:	
  2322  0548  1803               	skipnc
  2323  0549  2D4F               	goto	l4469
  2324                           
  2325                           ;AD.c: 50: Admax = Ad_temp;
  2326  054A  085C               	movf	Ad_testing@Ad_temp+1,w
  2327  054B  00B9               	movwf	_Admax+1
  2328  054C  085B               	movf	Ad_testing@Ad_temp,w
  2329  054D  00B8               	movwf	_Admax
  2330  054E  2D5B               	goto	l1316
  2331  054F                     l4469:	
  2332                           
  2333                           ;AD.c: 51: else if(Ad_temp < Admin)
  2334  054F  083B               	movf	_Admin+1,w
  2335  0550  025C               	subwf	Ad_testing@Ad_temp+1,w
  2336  0551  1D03               	skipz
  2337  0552  2D55               	goto	u2345
  2338  0553  083A               	movf	_Admin,w
  2339  0554  025B               	subwf	Ad_testing@Ad_temp,w
  2340  0555                     u2345:	
  2341  0555  1803               	skipnc
  2342  0556  2D5B               	goto	l1316
  2343                           
  2344                           ;AD.c: 52: Admin = Ad_temp;
  2345  0557  085C               	movf	Ad_testing@Ad_temp+1,w
  2346  0558  00BB               	movwf	_Admin+1
  2347  0559  085B               	movf	Ad_testing@Ad_temp,w
  2348  055A  00BA               	movwf	_Admin
  2349  055B                     l1316:	
  2350                           
  2351                           ;AD.c: 54: Adsum += Ad_temp;
  2352  055B  085B               	movf	Ad_testing@Ad_temp,w
  2353  055C  07BE               	addwf	_Adsum,f
  2354  055D  1803               	skipnc
  2355  055E  0ABF               	incf	_Adsum+1,f
  2356  055F  085C               	movf	Ad_testing@Ad_temp+1,w
  2357  0560  07BF               	addwf	_Adsum+1,f
  2358                           
  2359                           ;AD.c: 55: if(++Adtimes >= 10)
  2360  0561  300A               	movlw	10
  2361  0562  0ACC               	incf	_Adtimes,f
  2362  0563  024C               	subwf	_Adtimes,w
  2363  0564  1C03               	skipc
  2364  0565  2D8F               	goto	l4491
  2365                           
  2366                           ;AD.c: 56: {
  2367                           ;AD.c: 57: Adsum -= Admax;
  2368  0566  0838               	movf	_Admax,w
  2369  0567  02BE               	subwf	_Adsum,f
  2370  0568  0839               	movf	_Admax+1,w
  2371  0569  1C03               	skipc
  2372  056A  03BF               	decf	_Adsum+1,f
  2373  056B  02BF               	subwf	_Adsum+1,f
  2374                           
  2375                           ;AD.c: 58: Adsum -= Admin;
  2376  056C  083A               	movf	_Admin,w
  2377  056D  02BE               	subwf	_Adsum,f
  2378  056E  083B               	movf	_Admin+1,w
  2379  056F  1C03               	skipc
  2380  0570  03BF               	decf	_Adsum+1,f
  2381  0571  02BF               	subwf	_Adsum+1,f
  2382                           
  2383                           ;AD.c: 59: Adresult = Adsum >> 3;
  2384  0572  083F               	movf	_Adsum+1,w
  2385  0573  00BD               	movwf	_Adresult+1
  2386  0574  083E               	movf	_Adsum,w
  2387  0575  00BC               	movwf	_Adresult
  2388  0576  30FF               	movlw	255
  2389  0577  1003               	clrc
  2390  0578  0CBD               	rrf	_Adresult+1,f
  2391  0579  0CBC               	rrf	_Adresult,f
  2392  057A  1003               	clrc
  2393  057B  0CBD               	rrf	_Adresult+1,f
  2394  057C  0CBC               	rrf	_Adresult,f
  2395  057D  1003               	clrc
  2396  057E  0CBD               	rrf	_Adresult+1,f
  2397  057F  0CBC               	rrf	_Adresult,f
  2398                           
  2399                           ;AD.c: 61: Adsum = 0;
  2400                           
  2401                           ;AD.c: 62: Admin = 0;
  2402                           
  2403                           ;AD.c: 63: Admax = 0;
  2404  0580  2590               	fcall	PL6	;call to abstracted procedure
  2405                           
  2406                           ;AD.c: 65: PID.iCurVal=1023-Adresult;
  2407  0581  00D8               	movwf	??_Ad_testing
  2408  0582  3003               	movlw	3
  2409  0583  00D9               	movwf	??_Ad_testing+1
  2410  0584  083C               	movf	_Adresult,w
  2411  0585  0258               	subwf	??_Ad_testing,w
  2412  0586  00B0               	movwf	_PID+16
  2413  0587  083D               	movf	_Adresult+1,w
  2414  0588  1C03               	skipc
  2415  0589  0A3D               	incf	_Adresult+1,w
  2416  058A  0259               	subwf	??_Ad_testing+1,w
  2417  058B  00B1               	movwf	_PID+17
  2418                           
  2419                           ;AD.c: 66: Flag_ntc_onead=1;
  2420  058C  14F1               	bsf	_Flag_ntc_onead/(0+8),_Flag_ntc_onead& (0+7)
  2421  058D  2D8F               	goto	l4491
  2422  058E                     l4489:	
  2423                           
  2424                           ;AD.c: 69: else
  2425                           ;AD.c: 70: {
  2426                           ;AD.c: 71: Adsum = 0;
  2427                           
  2428                           ;AD.c: 72: Admin = 0;
  2429                           
  2430                           ;AD.c: 73: Admax = 0;
  2431                           
  2432                           ;AD.c: 74: Adtimes = 0;
  2433  058E  2590               	fcall	PL6	;call to abstracted procedure
  2434  058F                     l4491:	
  2435                           
  2436                           ;AD.c: 75: }
  2437                           ;AD.c: 76: Check_Ntc();
  2438  058F  2F75               	ljmp	l4029
  2439  0590                     __end_of_Ad_testing:	
  2440  0590                     PL6:	
  2441  0590  01BE               	clrf	_Adsum
  2442  0591  01BF               	clrf	_Adsum+1
  2443  0592  01BA               	clrf	_Admin
  2444  0593  01BB               	clrf	_Admin+1
  2445  0594  01B8               	clrf	_Admax
  2446  0595  01B9               	clrf	_Admax+1
  2447  0596  01CC               	clrf	_Adtimes
  2448  0597  0008               	return
  2449                           
  2450                           	psect	text442
  2451  0495                     __ptext442:	
  2452 ;; =============== function _Ad_testing ends ============
  2453                           
  2454                           
  2455 ;; *************** function _Disp_Lcd *****************
  2456 ;; Defined at:
  2457 ;;		line 109 in file "E:\Elec DataSheet\\\SC8P171X_Demo  -- \ZFQ-Demo-Code -2018
      +0105_V1.0-1713s\XLD-DLZFQ-20180105_V1.0\Display_lcd.c"
  2458 ;; Parameters:    Size  Location     Type
  2459 ;;		None
  2460 ;; Auto vars:     Size  Location     Type
  2461 ;;		None
  2462 ;; Return value:  Size  Location     Type
  2463 ;;		None               void
  2464 ;; Registers used:
  2465 ;;		wreg, fsr0l, fsr0h, status,2, status,0, pclath, cstack
  2466 ;; Tracked objects:
  2467 ;;		On entry : 60/0
  2468 ;;		On exit  : 60/0
  2469 ;;		Unchanged: FFE00/0
  2470 ;; Data sizes:     COMMON   BANK0   BANK1
  2471 ;;      Params:         0       0       0
  2472 ;;      Locals:         0       0       0
  2473 ;;      Temps:          0       0       0
  2474 ;;      Totals:         0       0       0
  2475 ;;Total ram usage:        0 bytes
  2476 ;; Hardware stack levels used:    1
  2477 ;; Hardware stack levels required when called:    4
  2478 ;; This function calls:
  2479 ;;		_disf
  2480 ;; This function is called by:
  2481 ;;		_main
  2482 ;; This function uses a non-reentrant model
  2483 ;;
  2484  0495                     _Disp_Lcd:	
  2485                           
  2486                           ;Display_lcd.c: 112: LCDCON0=0B10000000;
  2487                           
  2488                           ; Regs used in _Disp_Lcd: [wreg-fsr0h+status,2+status,0+pclath+cstack]
  2489  0495  3080               	movlw	128
  2490  0496  1683               	bsf	3,5	;RP0=1, select bank3
  2491  0497  1703               	bsf	3,6	;RP1=1, select bank3
  2492  0498  0090               	movwf	16	;volatile
  2493                           
  2494                           ;Display_lcd.c: 113: COMEN=0B00001111;
  2495  0499  300F               	movlw	15
  2496  049A  0097               	movwf	23	;volatile
  2497                           
  2498                           ;Display_lcd.c: 116: WPUA=0X00;
  2499  049B  018E               	clrf	14	;volatile
  2500                           
  2501                           ;Display_lcd.c: 117: TRISA&=0XF1;
  2502  049C  30F1               	movlw	241
  2503  049D  1303               	bcf	3,6	;RP1=0, select bank1
  2504  049E  0585               	andwf	5,f	;volatile
  2505                           
  2506                           ;Display_lcd.c: 119: TRISC=0XFF;
  2507  049F  30FF               	movlw	255
  2508  04A0  0087               	movwf	7	;volatile
  2509                           
  2510                           ;Display_lcd.c: 121: if(Flag_onoff)
  2511  04A1  1D71               	btfss	_Flag_onoff/(0+8),_Flag_onoff& (0+7)
  2512  04A2  2CA6               	goto	l654
  2513                           
  2514                           ;Display_lcd.c: 122: {
  2515                           ;Display_lcd.c: 123: RE0=1;
  2516  04A3  1283               	bcf	3,5	;RP0=0, select bank0
  2517  04A4  1409               	bsf	9,0
  2518                           
  2519                           ;Display_lcd.c: 124: }
  2520  04A5  2CA8               	goto	l655
  2521  04A6                     l654:	
  2522                           
  2523                           ;Display_lcd.c: 125: else
  2524                           ;Display_lcd.c: 126: {
  2525                           ;Display_lcd.c: 127: RE0=0;
  2526  04A6  1283               	bcf	3,5	;RP0=0, select bank0
  2527  04A7  1009               	bcf	9,0
  2528  04A8                     l655:	
  2529                           
  2530                           ;Display_lcd.c: 128: }
  2531                           ;Display_lcd.c: 130: if(Dcount & 0x01)
  2532  04A8  1C7D               	btfss	_Dcount,0
  2533  04A9  2CB1               	goto	l656
  2534                           
  2535                           ;Display_lcd.c: 131: {
  2536                           ;Display_lcd.c: 132: RB7 = 1;
  2537  04AA  1786               	bsf	6,7
  2538                           
  2539                           ;Display_lcd.c: 133: RA1 = 1;
  2540  04AB  1485               	bsf	5,1
  2541                           
  2542                           ;Display_lcd.c: 134: RA2 = 1;
  2543  04AC  1505               	bsf	5,2
  2544                           
  2545                           ;Display_lcd.c: 135: RA3 = 1;
  2546  04AD  1585               	bsf	5,3
  2547                           
  2548                           ;Display_lcd.c: 136: RA4 = 1;
  2549  04AE  1605               	bsf	5,4
  2550                           
  2551                           ;Display_lcd.c: 137: RB6 = 1;
  2552  04AF  1706               	bsf	6,6
  2553                           
  2554                           ;Display_lcd.c: 139: }
  2555  04B0  2CE2               	goto	l4437
  2556  04B1                     l656:	
  2557                           
  2558                           ;Display_lcd.c: 140: else
  2559                           ;Display_lcd.c: 141: {
  2560                           ;Display_lcd.c: 142: RB7 = 0;
  2561  04B1  1386               	bcf	6,7
  2562                           
  2563                           ;Display_lcd.c: 143: RA1 = 0;
  2564  04B2  1085               	bcf	5,1
  2565                           
  2566                           ;Display_lcd.c: 144: RA2 = 0;
  2567  04B3  1105               	bcf	5,2
  2568                           
  2569                           ;Display_lcd.c: 145: RA3 = 0;
  2570  04B4  1185               	bcf	5,3
  2571                           
  2572                           ;Display_lcd.c: 146: RA4 = 0;
  2573  04B5  1205               	bcf	5,4
  2574                           
  2575                           ;Display_lcd.c: 147: RB6 = 0;
  2576  04B6  1306               	bcf	6,6
  2577  04B7  2CE2               	goto	l4437
  2578  04B8                     l4371:	
  2579                           
  2580                           ;Display_lcd.c: 154: disf(0);
  2581  04B8  3000               	movlw	0
  2582  04B9  2598               	fcall	_disf
  2583                           
  2584                           ;Display_lcd.c: 157: COMEN =0B00001110;
  2585  04BA  300E               	movlw	14
  2586                           
  2587                           ;Display_lcd.c: 158: TRISC =0B10011110;
  2588                           
  2589                           ;Display_lcd.c: 159: RC0 = 0;
  2590  04BB  2513               	fcall	PL7	;call to abstracted procedure
  2591  04BC  1007               	bcf	7,0
  2592                           
  2593                           ;Display_lcd.c: 160: break;
  2594  04BD  2CED               	goto	l4439
  2595  04BE                     l4379:	
  2596                           
  2597                           ;Display_lcd.c: 163: disf(0);
  2598  04BE  3000               	movlw	0
  2599  04BF  2598               	fcall	_disf
  2600                           
  2601                           ;Display_lcd.c: 166: COMEN=0B10001110;
  2602  04C0  308E               	movlw	142
  2603                           
  2604                           ;Display_lcd.c: 167: TRISC=0B10011110;
  2605                           
  2606                           ;Display_lcd.c: 168: RC0 = 1;
  2607  04C1  2513               	fcall	PL7	;call to abstracted procedure
  2608  04C2  1407               	bsf	7,0
  2609                           
  2610                           ;Display_lcd.c: 169: break;
  2611  04C3  2CED               	goto	l4439
  2612  04C4                     l4387:	
  2613                           
  2614                           ;Display_lcd.c: 173: disf(1);
  2615  04C4  3001               	movlw	1
  2616  04C5  2598               	fcall	_disf
  2617                           
  2618                           ;Display_lcd.c: 176: COMEN=0B00001101;
  2619                           
  2620                           ;Display_lcd.c: 177: TRISC=0B10011101;
  2621                           
  2622                           ;Display_lcd.c: 178: RC1 = 0;
  2623  04C6  24F8               	fcall	PL3	;call to abstracted procedure
  2624  04C7  1087               	bcf	7,1
  2625                           
  2626                           ;Display_lcd.c: 179: break;
  2627  04C8  2CED               	goto	l4439
  2628  04C9                     l4395:	
  2629                           
  2630                           ;Display_lcd.c: 182: disf(1);
  2631  04C9  3001               	movlw	1
  2632  04CA  2598               	fcall	_disf
  2633                           
  2634                           ;Display_lcd.c: 184: COMEN=0B00001101;
  2635                           
  2636                           ;Display_lcd.c: 185: TRISC=0B10011101;
  2637                           
  2638                           ;Display_lcd.c: 186: RC1 = 1;
  2639  04CB  24F8               	fcall	PL3	;call to abstracted procedure
  2640  04CC  1487               	bsf	7,1
  2641                           
  2642                           ;Display_lcd.c: 187: break;
  2643  04CD  2CED               	goto	l4439
  2644  04CE                     l4403:	
  2645                           
  2646                           ;Display_lcd.c: 191: disf(2);
  2647  04CE  3002               	movlw	2
  2648  04CF  2598               	fcall	_disf
  2649                           
  2650                           ;Display_lcd.c: 193: COMEN=0B00001011;
  2651                           
  2652                           ;Display_lcd.c: 194: TRISC=0B10011011;
  2653                           
  2654                           ;Display_lcd.c: 195: RC2 = 0;
  2655  04D0  2501               	fcall	PL4	;call to abstracted procedure
  2656  04D1  1107               	bcf	7,2
  2657                           
  2658                           ;Display_lcd.c: 196: break;
  2659  04D2  2CED               	goto	l4439
  2660  04D3                     l4411:	
  2661                           
  2662                           ;Display_lcd.c: 199: disf(2);
  2663  04D3  3002               	movlw	2
  2664  04D4  2598               	fcall	_disf
  2665                           
  2666                           ;Display_lcd.c: 201: COMEN=0B00001011;
  2667                           
  2668                           ;Display_lcd.c: 202: TRISC=0B10011011;
  2669                           
  2670                           ;Display_lcd.c: 203: RC2 = 1;
  2671  04D5  2501               	fcall	PL4	;call to abstracted procedure
  2672  04D6  1507               	bsf	7,2
  2673                           
  2674                           ;Display_lcd.c: 204: break;
  2675  04D7  2CED               	goto	l4439
  2676  04D8                     l4419:	
  2677                           
  2678                           ;Display_lcd.c: 208: disf(3);
  2679  04D8  3003               	movlw	3
  2680  04D9  2598               	fcall	_disf
  2681                           
  2682                           ;Display_lcd.c: 210: COMEN=0B00000111;
  2683                           
  2684                           ;Display_lcd.c: 211: TRISC=0B10010111;
  2685                           
  2686                           ;Display_lcd.c: 212: RC3 = 0;
  2687  04DA  250A               	fcall	PL5	;call to abstracted procedure
  2688  04DB  1187               	bcf	7,3
  2689                           
  2690                           ;Display_lcd.c: 213: break;
  2691  04DC  2CED               	goto	l4439
  2692  04DD                     l4427:	
  2693                           
  2694                           ;Display_lcd.c: 216: disf(3);
  2695  04DD  3003               	movlw	3
  2696  04DE  2598               	fcall	_disf
  2697                           
  2698                           ;Display_lcd.c: 218: COMEN=0B00000111;
  2699                           
  2700                           ;Display_lcd.c: 219: TRISC=0B10010111;
  2701                           
  2702                           ;Display_lcd.c: 220: RC3 = 1;
  2703  04DF  250A               	fcall	PL5	;call to abstracted procedure
  2704  04E0  1587               	bsf	7,3
  2705                           
  2706                           ;Display_lcd.c: 221: break;
  2707  04E1  2CED               	goto	l4439
  2708  04E2                     l4437:	
  2709  04E2  087D               	movf	_Dcount,w
  2710                           
  2711                           ; Switch size 1, requested type "space"
  2712                           ; Number of cases is 7, Range of values is 0 to 6
  2713                           ; switch strategies available:
  2714                           ; Name         Instructions Cycles
  2715                           ; direct_byte           13     6 (fixed)
  2716                           ; simple_byte           22    12 (average)
  2717                           ; jumptable            260     6 (fixed)
  2718                           ; rangetable            11     6 (fixed)
  2719                           ; spacedrange           20     9 (fixed)
  2720                           ; locatedrange           7     3 (fixed)
  2721                           ;	Chosen strategy is direct_byte
  2722  04E3  0084               	movwf	4
  2723  04E4  3007               	movlw	7
  2724  04E5  0204               	subwf	4,w
  2725  04E6  1803               	skipnc
  2726  04E7  2CDD               	goto	l4427
  2727  04E8  3000               	movlw	high S4729
  2728  04E9  008A               	movwf	10
  2729  04EA  30DA               	movlw	low S4729
  2730  04EB  0704               	addwf	4,w
  2731  04EC  0082               	movwf	2
  2732  04ED                     l4439:	
  2733  04ED  3008               	movlw	8
  2734                           
  2735                           ;Display_lcd.c: 225: Dcount++; if(8 <= Dcount) {Dcount = 0;}
  2736  04EE  0AFD               	incf	_Dcount,f
  2737  04EF  027D               	subwf	_Dcount,w
  2738  04F0  1803               	btfsc	3,0
  2739  04F1  01FD               	clrf	_Dcount
  2740                           
  2741                           ;Display_lcd.c: 226: if(Dcount&0x01)
  2742  04F2  1C7D               	btfss	_Dcount,0
  2743  04F3  2CF6               	goto	l669
  2744                           
  2745                           ;Display_lcd.c: 227: Flag_bit=0;
  2746  04F4  1170               	bcf	_Flag_bit/(0+8),_Flag_bit& (0+7)
  2747  04F5  0008               	return
  2748  04F6                     l669:	
  2749                           
  2750                           ;Display_lcd.c: 228: else
  2751                           ;Display_lcd.c: 229: Flag_bit=1;
  2752  04F6  1570               	bsf	_Flag_bit/(0+8),_Flag_bit& (0+7)
  2753  04F7  0008               	return
  2754  04F8                     __end_of_Disp_Lcd:	
  2755  04F8                     PL3:	
  2756  04F8  300D               	movlw	13
  2757  04F9  1683               	bsf	3,5	;RP0=1, select bank3
  2758  04FA  1703               	bsf	3,6	;RP1=1, select bank3
  2759  04FB  0097               	movwf	23	;volatile
  2760  04FC  309D               	movlw	157
  2761  04FD  1303               	bcf	3,6	;RP1=0, select bank1
  2762  04FE  0087               	movwf	7	;volatile
  2763  04FF  1283               	bcf	3,5	;RP0=0, select bank0
  2764  0500  0008               	return
  2765  0501                     PL4:	
  2766  0501  300B               	movlw	11
  2767  0502  1683               	bsf	3,5	;RP0=1, select bank3
  2768  0503  1703               	bsf	3,6	;RP1=1, select bank3
  2769  0504  0097               	movwf	23	;volatile
  2770  0505  309B               	movlw	155
  2771  0506  1303               	bcf	3,6	;RP1=0, select bank1
  2772  0507  0087               	movwf	7	;volatile
  2773  0508  1283               	bcf	3,5	;RP0=0, select bank0
  2774  0509  0008               	return
  2775  050A                     PL5:	
  2776  050A  3007               	movlw	7
  2777  050B  1683               	bsf	3,5	;RP0=1, select bank3
  2778  050C  1703               	bsf	3,6	;RP1=1, select bank3
  2779  050D  0097               	movwf	23	;volatile
  2780  050E  3097               	movlw	151
  2781  050F  1303               	bcf	3,6	;RP1=0, select bank1
  2782  0510  0087               	movwf	7	;volatile
  2783  0511  1283               	bcf	3,5	;RP0=0, select bank0
  2784  0512  0008               	return
  2785  0513                     PL7:	
  2786  0513  1683               	bsf	3,5	;RP0=1, select bank3
  2787  0514  1703               	bsf	3,6	;RP1=1, select bank3
  2788  0515  0097               	movwf	23	;volatile
  2789  0516  309E               	movlw	158
  2790  0517  1303               	bcf	3,6	;RP1=0, select bank1
  2791  0518  0087               	movwf	7	;volatile
  2792  0519  1283               	bcf	3,5	;RP0=0, select bank0
  2793  051A  0008               	return
  2794                           
  2795                           	psect	swtext1
  2796  00DA                     __pswtext1:	
  2797  00DA                     S4729:	
  2798  00DA  2CB8               	ljmp	l4371
  2799  00DB  2CBE               	ljmp	l4379
  2800  00DC  2CC4               	ljmp	l4387
  2801  00DD  2CC9               	ljmp	l4395
  2802  00DE  2CCE               	ljmp	l4403
  2803  00DF  2CD3               	ljmp	l4411
  2804  00E0  2CD8               	ljmp	l4419
  2805                           
  2806                           	psect	text443
  2807  0409                     __ptext443:	
  2808 ;; =============== function _Disp_Lcd ends ============
  2809                           
  2810                           
  2811 ;; *************** function _Set_disp *****************
  2812 ;; Defined at:
  2813 ;;		line 7 in file "E:\Elec DataSheet\\\SC8P171X_Demo  -- \ZFQ-Demo-Code -201801
      +05_V1.0-1713s\XLD-DLZFQ-20180105_V1.0\Display_lcd.c"
  2814 ;; Parameters:    Size  Location     Type
  2815 ;;		None
  2816 ;; Auto vars:     Size  Location     Type
  2817 ;;  smg_data1       1   14[BANK0 ] unsigned char 
  2818 ;;  smg_data3       1   13[BANK0 ] unsigned char 
  2819 ;;  smg_data2       1   12[BANK0 ] unsigned char 
  2820 ;; Return value:  Size  Location     Type
  2821 ;;		None               void
  2822 ;; Registers used:
  2823 ;;		wreg, fsr0l, fsr0h, status,2, status,0, btemp+1, pclath, cstack
  2824 ;; Tracked objects:
  2825 ;;		On entry : 60/0
  2826 ;;		On exit  : 60/0
  2827 ;;		Unchanged: FFE9F/0
  2828 ;; Data sizes:     COMMON   BANK0   BANK1
  2829 ;;      Params:         0       0       0
  2830 ;;      Locals:         0       3       0
  2831 ;;      Temps:          0       0       0
  2832 ;;      Totals:         0       3       0
  2833 ;;Total ram usage:        3 bytes
  2834 ;; Hardware stack levels used:    1
  2835 ;; Hardware stack levels required when called:    4
  2836 ;; This function calls:
  2837 ;;		___lwdiv
  2838 ;;		___lwmod
  2839 ;; This function is called by:
  2840 ;;		_main
  2841 ;; This function uses a non-reentrant model
  2842 ;;
  2843  0409                     _Set_disp:	
  2844  0409  3064               	movlw	100
  2845                           
  2846                           ;Display_lcd.c: 9: unsigned char smg_data1, smg_data2, smg_data3;
  2847                           ;Display_lcd.c: 11: Display[0]=0;
  2848                           
  2849                           ; Regs used in _Set_disp: [wreg-fsr0h+status,2+status,0+btemp+1+pclath+cstack]
  2850  040A  01B2               	clrf	_Display
  2851                           
  2852                           ;Display_lcd.c: 12: Display[1]=0;
  2853  040B  01B3               	clrf	_Display+1
  2854                           
  2855                           ;Display_lcd.c: 13: Display[2]=0;
  2856  040C  01B4               	clrf	_Display+2
  2857                           
  2858                           ;Display_lcd.c: 14: Display[3]=0;
  2859  040D  01B5               	clrf	_Display+3
  2860                           
  2861                           ;Display_lcd.c: 16: smg_data1 = LCDCode[Tempr_rank/100];
  2862  040E  00DA               	movwf	?___lwdiv
  2863  040F  01DB               	clrf	?___lwdiv+1
  2864  0410  0845               	movf	_Tempr_rank+1,w
  2865  0411  00DD               	movwf	?___lwdiv+3
  2866  0412  0844               	movf	_Tempr_rank,w
  2867  0413  00DC               	movwf	?___lwdiv+2
  2868  0414  27A6               	fcall	___lwdiv
  2869  0415  085A               	movf	?___lwdiv,w
  2870  0416  248E               	fcall	PL2	;call to abstracted procedure
  2871  0417  2100               	fcall	stringtab
  2872  0418  00E3               	movwf	Set_disp@smg_data1
  2873                           
  2874                           ;Display_lcd.c: 17: smg_data2 = LCDCode[Tempr_rank%100/10];
  2875  0419  300A               	movlw	10
  2876  041A  00DA               	movwf	?___lwdiv
  2877  041B  01DB               	clrf	?___lwdiv+1
  2878  041C  0845               	movf	_Tempr_rank+1,w
  2879  041D  00D8               	movwf	?___lwmod+3
  2880  041E  0844               	movf	_Tempr_rank,w
  2881  041F  00D7               	movwf	?___lwmod+2
  2882  0420  3064               	movlw	100
  2883  0421  00D5               	movwf	?___lwmod
  2884  0422  01D6               	clrf	?___lwmod+1
  2885  0423  2011               	fcall	___lwmod
  2886  0424  0856               	movf	?___lwmod+1,w
  2887  0425  00DD               	movwf	?___lwdiv+3
  2888  0426  0855               	movf	?___lwmod,w
  2889  0427  00DC               	movwf	?___lwdiv+2
  2890  0428  27A6               	fcall	___lwdiv
  2891  0429  085A               	movf	?___lwdiv,w
  2892  042A  248E               	fcall	PL2	;call to abstracted procedure
  2893  042B  2100               	fcall	stringtab
  2894  042C  00E1               	movwf	Set_disp@smg_data2
  2895                           
  2896                           ;Display_lcd.c: 18: smg_data3 = LCDCode[Tempr_rank%10];
  2897  042D  300A               	movlw	10
  2898  042E  00D5               	movwf	?___lwmod
  2899  042F  01D6               	clrf	?___lwmod+1
  2900  0430  0845               	movf	_Tempr_rank+1,w
  2901  0431  00D8               	movwf	?___lwmod+3
  2902  0432  0844               	movf	_Tempr_rank,w
  2903  0433  00D7               	movwf	?___lwmod+2
  2904  0434  2011               	fcall	___lwmod
  2905  0435  0855               	movf	?___lwmod,w
  2906  0436  248E               	fcall	PL2	;call to abstracted procedure
  2907  0437  2100               	fcall	stringtab
  2908  0438  00E2               	movwf	Set_disp@smg_data3
  2909                           
  2910                           ;Display_lcd.c: 21: if(Flag_onoff)
  2911  0439  1D71               	btfss	_Flag_onoff/(0+8),_Flag_onoff& (0+7)
  2912  043A  2C85               	goto	l4355
  2913                           
  2914                           ;Display_lcd.c: 22: {
  2915                           ;Display_lcd.c: 23: if(smg_data1 & 0x01)
  2916  043B  1863               	btfsc	Set_disp@smg_data1,0
  2917                           
  2918                           ;Display_lcd.c: 24: Display[3]|=(1<<1);
  2919  043C  14B5               	bsf	_Display+3,1
  2920                           
  2921                           ;Display_lcd.c: 25: if(smg_data1 & 0x02)
  2922  043D  1CE3               	btfss	Set_disp@smg_data1,1
  2923  043E  2C40               	goto	l629
  2924                           
  2925                           ;Display_lcd.c: 26: Display[2]|=(1<<1);
  2926  043F  14B4               	bsf	_Display+2,1
  2927  0440                     l629:	
  2928                           
  2929                           ;Display_lcd.c: 27: if(smg_data1 & 0x04)
  2930  0440  1D63               	btfss	Set_disp@smg_data1,2
  2931  0441  2C43               	goto	l630
  2932                           
  2933                           ;Display_lcd.c: 28: Display[1]|=(1<<1);
  2934  0442  14B3               	bsf	_Display+1,1
  2935  0443                     l630:	
  2936                           
  2937                           ;Display_lcd.c: 29: if(smg_data1 & 0x08)
  2938  0443  1DE3               	btfss	Set_disp@smg_data1,3
  2939  0444  2C46               	goto	l631
  2940                           
  2941                           ;Display_lcd.c: 30: Display[0]|=(1<<1);
  2942  0445  14B2               	bsf	_Display,1
  2943  0446                     l631:	
  2944                           
  2945                           ;Display_lcd.c: 31: if(smg_data1 & 0x10)
  2946  0446  1E63               	btfss	Set_disp@smg_data1,4
  2947  0447  2C49               	goto	l632
  2948                           
  2949                           ;Display_lcd.c: 32: Display[0]|=(1<<0);
  2950  0448  1432               	bsf	_Display,0
  2951  0449                     l632:	
  2952                           
  2953                           ;Display_lcd.c: 33: if(smg_data1 & 0x20)
  2954  0449  1EE3               	btfss	Set_disp@smg_data1,5
  2955  044A  2C4C               	goto	l633
  2956                           
  2957                           ;Display_lcd.c: 34: Display[2]|=(1<<0);
  2958  044B  1434               	bsf	_Display+2,0
  2959  044C                     l633:	
  2960                           
  2961                           ;Display_lcd.c: 35: if(smg_data1 & 0x40)
  2962  044C  1F63               	btfss	Set_disp@smg_data1,6
  2963  044D  2C4F               	goto	l634
  2964                           
  2965                           ;Display_lcd.c: 36: Display[1]|=(1<<0);
  2966  044E  1433               	bsf	_Display+1,0
  2967  044F                     l634:	
  2968                           
  2969                           ;Display_lcd.c: 39: if(smg_data2 & 0x01)
  2970  044F  1C61               	btfss	Set_disp@smg_data2,0
  2971  0450  2C52               	goto	l635
  2972                           
  2973                           ;Display_lcd.c: 40: Display[3]|=(1<<3);
  2974  0451  15B5               	bsf	_Display+3,3
  2975  0452                     l635:	
  2976                           
  2977                           ;Display_lcd.c: 41: if(smg_data2 & 0x02)
  2978  0452  1CE1               	btfss	Set_disp@smg_data2,1
  2979  0453  2C55               	goto	l636
  2980                           
  2981                           ;Display_lcd.c: 42: Display[2]|=(1<<3);
  2982  0454  15B4               	bsf	_Display+2,3
  2983  0455                     l636:	
  2984                           
  2985                           ;Display_lcd.c: 43: if(smg_data2 & 0x04)
  2986  0455  1D61               	btfss	Set_disp@smg_data2,2
  2987  0456  2C58               	goto	l637
  2988                           
  2989                           ;Display_lcd.c: 44: Display[1]|=(1<<3);
  2990  0457  15B3               	bsf	_Display+1,3
  2991  0458                     l637:	
  2992                           
  2993                           ;Display_lcd.c: 45: if(smg_data2 & 0x08)
  2994  0458  1DE1               	btfss	Set_disp@smg_data2,3
  2995  0459  2C5B               	goto	l638
  2996                           
  2997                           ;Display_lcd.c: 46: Display[0]|=(1<<3);
  2998  045A  15B2               	bsf	_Display,3
  2999  045B                     l638:	
  3000                           
  3001                           ;Display_lcd.c: 47: if(smg_data2 & 0x10)
  3002  045B  1E61               	btfss	Set_disp@smg_data2,4
  3003  045C  2C5E               	goto	l639
  3004                           
  3005                           ;Display_lcd.c: 48: Display[0]|=(1<<2);
  3006  045D  1532               	bsf	_Display,2
  3007  045E                     l639:	
  3008                           
  3009                           ;Display_lcd.c: 49: if(smg_data2 & 0x20)
  3010  045E  1EE1               	btfss	Set_disp@smg_data2,5
  3011  045F  2C61               	goto	l640
  3012                           
  3013                           ;Display_lcd.c: 50: Display[2]|=(1<<2);
  3014  0460  1534               	bsf	_Display+2,2
  3015  0461                     l640:	
  3016                           
  3017                           ;Display_lcd.c: 51: if(smg_data2 & 0x40)
  3018  0461  1F61               	btfss	Set_disp@smg_data2,6
  3019  0462  2C64               	goto	l641
  3020                           
  3021                           ;Display_lcd.c: 52: Display[1]|=(1<<2);
  3022  0463  1533               	bsf	_Display+1,2
  3023  0464                     l641:	
  3024                           
  3025                           ;Display_lcd.c: 55: if(smg_data3 & 0x01)
  3026  0464  1C62               	btfss	Set_disp@smg_data3,0
  3027  0465  2C67               	goto	l642
  3028                           
  3029                           ;Display_lcd.c: 56: Display[3]|=(1<<5);
  3030  0466  16B5               	bsf	_Display+3,5
  3031  0467                     l642:	
  3032                           
  3033                           ;Display_lcd.c: 57: if(smg_data3 & 0x02)
  3034  0467  1CE2               	btfss	Set_disp@smg_data3,1
  3035  0468  2C6A               	goto	l643
  3036                           
  3037                           ;Display_lcd.c: 58: Display[2]|=(1<<5);
  3038  0469  16B4               	bsf	_Display+2,5
  3039  046A                     l643:	
  3040                           
  3041                           ;Display_lcd.c: 59: if(smg_data3 & 0x04)
  3042  046A  1D62               	btfss	Set_disp@smg_data3,2
  3043  046B  2C6D               	goto	l644
  3044                           
  3045                           ;Display_lcd.c: 60: Display[1]|=(1<<5);
  3046  046C  16B3               	bsf	_Display+1,5
  3047  046D                     l644:	
  3048                           
  3049                           ;Display_lcd.c: 61: if(smg_data3 & 0x08)
  3050  046D  1DE2               	btfss	Set_disp@smg_data3,3
  3051  046E  2C70               	goto	l645
  3052                           
  3053                           ;Display_lcd.c: 62: Display[0]|=(1<<5);
  3054  046F  16B2               	bsf	_Display,5
  3055  0470                     l645:	
  3056                           
  3057                           ;Display_lcd.c: 63: if(smg_data3 & 0x10)
  3058  0470  1E62               	btfss	Set_disp@smg_data3,4
  3059  0471  2C73               	goto	l646
  3060                           
  3061                           ;Display_lcd.c: 64: Display[0]|=(1<<4);
  3062  0472  1632               	bsf	_Display,4
  3063  0473                     l646:	
  3064                           
  3065                           ;Display_lcd.c: 65: if(smg_data3 & 0x20)
  3066  0473  1EE2               	btfss	Set_disp@smg_data3,5
  3067  0474  2C76               	goto	l647
  3068                           
  3069                           ;Display_lcd.c: 66: Display[2]|=(1<<4);
  3070  0475  1634               	bsf	_Display+2,4
  3071  0476                     l647:	
  3072                           
  3073                           ;Display_lcd.c: 67: if(smg_data3 & 0x40)
  3074  0476  1F62               	btfss	Set_disp@smg_data3,6
  3075  0477  2C79               	goto	l648
  3076                           
  3077                           ;Display_lcd.c: 68: Display[1]|=(1<<4);
  3078  0478  1633               	bsf	_Display+1,4
  3079  0479                     l648:	
  3080                           
  3081                           ;Display_lcd.c: 70: Display[3]|=(1<<4);
  3082  0479  1635               	bsf	_Display+3,4
  3083                           
  3084                           ;Display_lcd.c: 71: Display[3]|=(1<<2);
  3085  047A  1535               	bsf	_Display+3,2
  3086                           
  3087                           ;Display_lcd.c: 73: if(smg_data1==0x3f)
  3088  047B  0863               	movf	Set_disp@smg_data1,w
  3089  047C  3A3F               	xorlw	63
  3090  047D  1D03               	skipz
  3091  047E  0008               	return
  3092                           
  3093                           ;Display_lcd.c: 74: {
  3094                           ;Display_lcd.c: 75: Display[0]&=0xfc;
  3095  047F  30FC               	movlw	252
  3096  0480  05B2               	andwf	_Display,f
  3097                           
  3098                           ;Display_lcd.c: 76: Display[1]&=0xfc;
  3099  0481  05B3               	andwf	_Display+1,f
  3100                           
  3101                           ;Display_lcd.c: 77: Display[2]&=0xfc;
  3102  0482  05B4               	andwf	_Display+2,f
  3103                           
  3104                           ;Display_lcd.c: 78: Display[3]&=0xfd;
  3105  0483  10B5               	bcf	_Display+3,1
  3106  0484  0008               	return
  3107  0485                     l4355:	
  3108                           
  3109                           ;Display_lcd.c: 83: else
  3110                           ;Display_lcd.c: 84: {
  3111                           ;Display_lcd.c: 85: Display[0]=0X17;
  3112  0485  3017               	movlw	23
  3113  0486  00B2               	movwf	_Display
  3114                           
  3115                           ;Display_lcd.c: 86: Display[1]=0X16;
  3116  0487  3016               	movlw	22
  3117  0488  00B3               	movwf	_Display+1
  3118                           
  3119                           ;Display_lcd.c: 87: Display[2]=0X17;
  3120  0489  3017               	movlw	23
  3121  048A  00B4               	movwf	_Display+2
  3122                           
  3123                           ;Display_lcd.c: 88: Display[3]=0X2A;
  3124  048B  302A               	movlw	42
  3125  048C  00B5               	movwf	_Display+3
  3126  048D  0008               	return
  3127  048E                     __end_of_Set_disp:	
  3128  048E                     PL2:	
  3129  048E  3EEC               	addlw	low (_LCDCode| (0+32768))
  3130  048F  0084               	movwf	4
  3131  0490  3082               	movlw	high (_LCDCode| (0+32768))
  3132  0491  1803               	skipnc
  3133  0492  3E01               	addlw	1
  3134  0493  00FF               	movwf	127
  3135  0494  0008               	return
  3136                           
  3137                           	psect	text444
  3138  0011                     __ptext444:	
  3139 ;; =============== function _Set_disp ends ============
  3140                           
  3141                           
  3142 ;; *************** function ___lwmod *****************
  3143 ;; Defined at:
  3144 ;;		line 5 in file "D:\SCMCU_IDE_V1.11.01_20180525\data\sources\lwmod.c"
  3145 ;; Parameters:    Size  Location     Type
  3146 ;;  divisor         2    0[BANK0 ] unsigned int 
  3147 ;;  dividend        2    2[BANK0 ] unsigned int 
  3148 ;; Auto vars:     Size  Location     Type
  3149 ;;  counter         1    4[BANK0 ] unsigned char 
  3150 ;; Return value:  Size  Location     Type
  3151 ;;                  2    0[BANK0 ] unsigned int 
  3152 ;; Registers used:
  3153 ;;		wreg, status,2, status,0
  3154 ;; Tracked objects:
  3155 ;;		On entry : 60/0
  3156 ;;		On exit  : 60/0
  3157 ;;		Unchanged: FFF9F/0
  3158 ;; Data sizes:     COMMON   BANK0   BANK1
  3159 ;;      Params:         0       4       0
  3160 ;;      Locals:         0       1       0
  3161 ;;      Temps:          0       0       0
  3162 ;;      Totals:         0       5       0
  3163 ;;Total ram usage:        5 bytes
  3164 ;; Hardware stack levels used:    1
  3165 ;; Hardware stack levels required when called:    3
  3166 ;; This function calls:
  3167 ;;		Nothing
  3168 ;; This function is called by:
  3169 ;;		_Set_disp
  3170 ;; This function uses a non-reentrant model
  3171 ;;
  3172  0011                     ___lwmod:	
  3173                           
  3174                           ; Regs used in ___lwmod: [wreg+status,2+status,0]
  3175  0011  0856               	movf	___lwmod@divisor+1,w
  3176  0012  0455               	iorwf	___lwmod@divisor,w
  3177  0013  1903               	skipnz
  3178  0014  2830               	goto	l4291
  3179  0015  01D9               	clrf	___lwmod@counter
  3180  0016                     L4:	
  3181  0016  0AD9               	incf	___lwmod@counter,f
  3182  0017  1BD6               	btfsc	___lwmod@divisor+1,7
  3183  0018  281D               	goto	l4283
  3184  0019  1003               	clrc
  3185  001A  0DD5               	rlf	___lwmod@divisor,f
  3186  001B  0DD6               	rlf	___lwmod@divisor+1,f
  3187  001C  2816               	goto	L4
  3188  001D                     l4283:	
  3189  001D  0856               	movf	___lwmod@divisor+1,w
  3190  001E  0258               	subwf	___lwmod@dividend+1,w
  3191  001F  1D03               	skipz
  3192  0020  2823               	goto	u2015
  3193  0021  0855               	movf	___lwmod@divisor,w
  3194  0022  0257               	subwf	___lwmod@dividend,w
  3195  0023                     u2015:	
  3196  0023  1C03               	skipc
  3197  0024  282C               	goto	L5
  3198  0025  0855               	movf	___lwmod@divisor,w
  3199  0026  02D7               	subwf	___lwmod@dividend,f
  3200  0027  0856               	movf	___lwmod@divisor+1,w
  3201  0028  1C03               	skipc
  3202  0029  03D8               	decf	___lwmod@dividend+1,f
  3203  002A  02D8               	subwf	___lwmod@dividend+1,f
  3204  002B  1003               	clrc
  3205  002C                     L5:	
  3206  002C  0CD6               	rrf	___lwmod@divisor+1,f
  3207  002D  0CD5               	rrf	___lwmod@divisor,f
  3208  002E  0BD9               	decfsz	___lwmod@counter,f
  3209  002F  281D               	goto	l4283
  3210  0030                     l4291:	
  3211  0030  0858               	movf	___lwmod@dividend+1,w
  3212  0031  00D6               	movwf	?___lwmod+1
  3213  0032  0857               	movf	___lwmod@dividend,w
  3214  0033  00D5               	movwf	?___lwmod
  3215  0034  0008               	return
  3216  0035                     __end_of___lwmod:	
  3217                           
  3218                           	psect	text445
  3219  07A6                     __ptext445:	
  3220 ;; =============== function ___lwmod ends ============
  3221                           
  3222                           
  3223 ;; *************** function ___lwdiv *****************
  3224 ;; Defined at:
  3225 ;;		line 5 in file "D:\SCMCU_IDE_V1.11.01_20180525\data\sources\lwdiv.c"
  3226 ;; Parameters:    Size  Location     Type
  3227 ;;  divisor         2    5[BANK0 ] unsigned int 
  3228 ;;  dividend        2    7[BANK0 ] unsigned int 
  3229 ;; Auto vars:     Size  Location     Type
  3230 ;;  quotient        2    9[BANK0 ] unsigned int 
  3231 ;;  counter         1   11[BANK0 ] unsigned char 
  3232 ;; Return value:  Size  Location     Type
  3233 ;;                  2    5[BANK0 ] unsigned int 
  3234 ;; Registers used:
  3235 ;;		wreg, status,2, status,0
  3236 ;; Tracked objects:
  3237 ;;		On entry : 60/0
  3238 ;;		On exit  : 60/0
  3239 ;;		Unchanged: FFF9F/0
  3240 ;; Data sizes:     COMMON   BANK0   BANK1
  3241 ;;      Params:         0       4       0
  3242 ;;      Locals:         0       3       0
  3243 ;;      Temps:          0       0       0
  3244 ;;      Totals:         0       7       0
  3245 ;;Total ram usage:        7 bytes
  3246 ;; Hardware stack levels used:    1
  3247 ;; Hardware stack levels required when called:    3
  3248 ;; This function calls:
  3249 ;;		Nothing
  3250 ;; This function is called by:
  3251 ;;		_Set_disp
  3252 ;;		_PID_control
  3253 ;; This function uses a non-reentrant model
  3254 ;;
  3255  07A6                     ___lwdiv:	
  3256                           
  3257                           ; Regs used in ___lwdiv: [wreg+status,2+status,0]
  3258  07A6  01DE               	clrf	___lwdiv@quotient
  3259  07A7  01DF               	clrf	___lwdiv@quotient+1
  3260  07A8  085B               	movf	___lwdiv@divisor+1,w
  3261  07A9  045A               	iorwf	___lwdiv@divisor,w
  3262  07AA  1903               	skipnz
  3263  07AB  2FCB               	goto	l4271
  3264  07AC  01E0               	clrf	___lwdiv@counter
  3265  07AD                     L6:	
  3266  07AD  0AE0               	incf	___lwdiv@counter,f
  3267  07AE  1BDB               	btfsc	___lwdiv@divisor+1,7
  3268  07AF  2FB4               	goto	l4259
  3269  07B0  1003               	clrc
  3270  07B1  0DDA               	rlf	___lwdiv@divisor,f
  3271  07B2  0DDB               	rlf	___lwdiv@divisor+1,f
  3272  07B3  2FAD               	goto	L6
  3273  07B4                     l4259:	
  3274  07B4  1003               	clrc
  3275  07B5  0DDE               	rlf	___lwdiv@quotient,f
  3276  07B6  0DDF               	rlf	___lwdiv@quotient+1,f
  3277  07B7  085B               	movf	___lwdiv@divisor+1,w
  3278  07B8  025D               	subwf	___lwdiv@dividend+1,w
  3279  07B9  1D03               	skipz
  3280  07BA  2FBD               	goto	u1975
  3281  07BB  085A               	movf	___lwdiv@divisor,w
  3282  07BC  025C               	subwf	___lwdiv@dividend,w
  3283  07BD                     u1975:	
  3284  07BD  1C03               	skipc
  3285  07BE  2FC7               	goto	L7
  3286  07BF  085A               	movf	___lwdiv@divisor,w
  3287  07C0  02DC               	subwf	___lwdiv@dividend,f
  3288  07C1  085B               	movf	___lwdiv@divisor+1,w
  3289  07C2  1C03               	skipc
  3290  07C3  03DD               	decf	___lwdiv@dividend+1,f
  3291  07C4  02DD               	subwf	___lwdiv@dividend+1,f
  3292  07C5  145E               	bsf	___lwdiv@quotient,0
  3293  07C6  1003               	clrc
  3294  07C7                     L7:	
  3295  07C7  0CDB               	rrf	___lwdiv@divisor+1,f
  3296  07C8  0CDA               	rrf	___lwdiv@divisor,f
  3297  07C9  0BE0               	decfsz	___lwdiv@counter,f
  3298  07CA  2FB4               	goto	l4259
  3299  07CB                     l4271:	
  3300  07CB  085F               	movf	___lwdiv@quotient+1,w
  3301  07CC  00DB               	movwf	?___lwdiv+1
  3302  07CD  085E               	movf	___lwdiv@quotient,w
  3303  07CE  00DA               	movwf	?___lwdiv
  3304  07CF  0008               	return
  3305  07D0                     __end_of___lwdiv:	
  3306                           
  3307                           	psect	text446
  3308  004F                     __ptext446:	
  3309 ;; =============== function ___lwdiv ends ============
  3310                           
  3311                           
  3312 ;; *************** function ___wmul *****************
  3313 ;; Defined at:
  3314 ;;		line 3 in file "D:\SCMCU_IDE_V1.11.01_20180525\data\sources\wmul.c"
  3315 ;; Parameters:    Size  Location     Type
  3316 ;;  multiplier      2    0[BANK0 ] unsigned int 
  3317 ;;  multiplicand    2    2[BANK0 ] unsigned int 
  3318 ;; Auto vars:     Size  Location     Type
  3319 ;;  product         2    4[BANK0 ] unsigned int 
  3320 ;; Return value:  Size  Location     Type
  3321 ;;                  2    0[BANK0 ] unsigned int 
  3322 ;; Registers used:
  3323 ;;		wreg, status,2, status,0
  3324 ;; Tracked objects:
  3325 ;;		On entry : 160/0
  3326 ;;		On exit  : 160/0
  3327 ;;		Unchanged: FFE9F/0
  3328 ;; Data sizes:     COMMON   BANK0   BANK1
  3329 ;;      Params:         0       4       0
  3330 ;;      Locals:         0       2       0
  3331 ;;      Temps:          0       0       0
  3332 ;;      Totals:         0       6       0
  3333 ;;Total ram usage:        6 bytes
  3334 ;; Hardware stack levels used:    1
  3335 ;; Hardware stack levels required when called:    3
  3336 ;; This function calls:
  3337 ;;		Nothing
  3338 ;; This function is called by:
  3339 ;;		_PID_operation
  3340 ;; This function uses a non-reentrant model
  3341 ;;
  3342  004F                     ___wmul:	
  3343                           
  3344                           ; Regs used in ___wmul: [wreg+status,2+status,0]
  3345  004F  01D9               	clrf	___wmul@product
  3346  0050  01DA               	clrf	___wmul@product+1
  3347  0051                     l4235:	
  3348  0051  1C55               	btfss	___wmul@multiplier,0
  3349  0052  2859               	goto	l4239
  3350  0053  0857               	movf	___wmul@multiplicand,w
  3351  0054  07D9               	addwf	___wmul@product,f
  3352  0055  1803               	skipnc
  3353  0056  0ADA               	incf	___wmul@product+1,f
  3354  0057  0858               	movf	___wmul@multiplicand+1,w
  3355  0058  07DA               	addwf	___wmul@product+1,f
  3356  0059                     l4239:	
  3357  0059  1003               	clrc
  3358  005A  0DD7               	rlf	___wmul@multiplicand,f
  3359  005B  0DD8               	rlf	___wmul@multiplicand+1,f
  3360  005C  1003               	clrc
  3361  005D  0CD6               	rrf	___wmul@multiplier+1,f
  3362  005E  0CD5               	rrf	___wmul@multiplier,f
  3363  005F  0856               	movf	___wmul@multiplier+1,w
  3364  0060  0455               	iorwf	___wmul@multiplier,w
  3365  0061  1D03               	skipz
  3366  0062  2851               	goto	l4235
  3367  0063  085A               	movf	___wmul@product+1,w
  3368  0064  00D6               	movwf	?___wmul+1
  3369  0065  0859               	movf	___wmul@product,w
  3370  0066  00D5               	movwf	?___wmul
  3371  0067  0008               	return
  3372  0068                     __end_of___wmul:	
  3373                           
  3374                           	psect	text447
  3375  00CE                     __ptext447:	
  3376 ;; =============== function ___wmul ends ============
  3377                           
  3378                           
  3379 ;; *************** function _Delay *****************
  3380 ;; Defined at:
  3381 ;;		line 128 in file "E:\Elec DataSheet\\\SC8P171X_Demo  -- \ZFQ-Demo-Code -2018
      +0105_V1.0-1713s\XLD-DLZFQ-20180105_V1.0\Kscan.c"
  3382 ;; Parameters:    Size  Location     Type
  3383 ;;  k               1    wreg     unsigned char 
  3384 ;; Auto vars:     Size  Location     Type
  3385 ;;  k               1    0[BANK0 ] unsigned char 
  3386 ;;  i               1    1[BANK0 ] unsigned char 
  3387 ;; Return value:  Size  Location     Type
  3388 ;;		None               void
  3389 ;; Registers used:
  3390 ;;		wreg, status,2, status,0
  3391 ;; Tracked objects:
  3392 ;;		On entry : 60/20
  3393 ;;		On exit  : 60/0
  3394 ;;		Unchanged: FFE00/0
  3395 ;; Data sizes:     COMMON   BANK0   BANK1
  3396 ;;      Params:         0       0       0
  3397 ;;      Locals:         0       2       0
  3398 ;;      Temps:          0       0       0
  3399 ;;      Totals:         0       2       0
  3400 ;;Total ram usage:        2 bytes
  3401 ;; Hardware stack levels used:    1
  3402 ;; Hardware stack levels required when called:    3
  3403 ;; This function calls:
  3404 ;;		Nothing
  3405 ;; This function is called by:
  3406 ;;		_Kscan
  3407 ;; This function uses a non-reentrant model
  3408 ;;
  3409  00CE                     _Delay:	
  3410                           
  3411                           ; Regs used in _Delay: [wreg+status,2+status,0]
  3412                           ;Delay@k stored from wreg
  3413  00CE  1283               	bcf	3,5	;RP0=0, select bank0
  3414  00CF  00D5               	movwf	Delay@k
  3415                           
  3416                           ;Kscan.c: 129: unsigned char i;
  3417                           ;Kscan.c: 130: for(i=0;i<k;i++)
  3418  00D0  01D6               	clrf	Delay@i
  3419  00D1                     l4231:	
  3420  00D1  0855               	movf	Delay@k,w
  3421  00D2  0256               	subwf	Delay@i,w
  3422  00D3  1803               	btfsc	3,0
  3423  00D4  0008               	return
  3424  00D5  0000               	nop	;#
  3425  00D6  1283               	bcf	3,5	;RP0=0, select bank0
  3426  00D7  1303               	bcf	3,6	;RP1=0, select bank0
  3427  00D8  0AD6               	incf	Delay@i,f
  3428  00D9  28D1               	goto	l4231
  3429  00DA                     __end_of_Delay:	
  3430                           
  3431                           	psect	text448
  3432  067B                     __ptext448:	
  3433 ;; =============== function _Delay ends ============
  3434                           
  3435                           
  3436 ;; *************** function _Kdeal *****************
  3437 ;; Defined at:
  3438 ;;		line 86 in file "E:\Elec DataSheet\\\SC8P171X_Demo  -- \ZFQ-Demo-Code -20180
      +105_V1.0-1713s\XLD-DLZFQ-20180105_V1.0\Kscan.c"
  3439 ;; Parameters:    Size  Location     Type
  3440 ;;		None
  3441 ;; Auto vars:     Size  Location     Type
  3442 ;;		None
  3443 ;; Return value:  Size  Location     Type
  3444 ;;		None               void
  3445 ;; Registers used:
  3446 ;;		wreg, fsr0l, fsr0h, status,2, status,0, btemp+1, pclath
  3447 ;; Tracked objects:
  3448 ;;		On entry : 60/0
  3449 ;;		On exit  : 60/0
  3450 ;;		Unchanged: FFE9F/0
  3451 ;; Data sizes:     COMMON   BANK0   BANK1
  3452 ;;      Params:         0       0       0
  3453 ;;      Locals:         0       0       0
  3454 ;;      Temps:          0       2       0
  3455 ;;      Totals:         0       2       0
  3456 ;;Total ram usage:        2 bytes
  3457 ;; Hardware stack levels used:    1
  3458 ;; Hardware stack levels required when called:    3
  3459 ;; This function calls:
  3460 ;;		Nothing
  3461 ;; This function is called by:
  3462 ;;		_main
  3463 ;; This function uses a non-reentrant model
  3464 ;;
  3465  067B                     _Kdeal:	
  3466                           
  3467                           ;Kscan.c: 87: if(Flag_keyf)
  3468                           
  3469                           ; Regs used in _Kdeal: [wreg-fsr0h+status,2+status,0+btemp+1+pclath]
  3470  067B  1FF0               	btfss	_Flag_keyf/(0+8),_Flag_keyf& (0+7)
  3471  067C  0008               	return
  3472                           
  3473                           ;Kscan.c: 88: {
  3474                           ;Kscan.c: 89: Flag_keyf=0;
  3475  067D  13F0               	bcf	_Flag_keyf/(0+8),_Flag_keyf& (0+7)
  3476                           
  3477                           ;Kscan.c: 91: switch(Keyflash)
  3478  067E  2E9F               	goto	l4223
  3479  067F                     l4201:	
  3480                           
  3481                           ;Kscan.c: 95: Flag_onoff=~Flag_onoff;
  3482  067F  3004               	movlw	(0+1) shl (_Flag_onoff& (0+7))
  3483  0680  06F1               	xorwf	_Flag_onoff/(0+8),f
  3484                           
  3485                           ;Kscan.c: 96: Tempr_setdata=180;
  3486  0681  30B4               	movlw	180
  3487  0682  00C6               	movwf	_Tempr_setdata
  3488  0683  01C7               	clrf	_Tempr_setdata+1
  3489  0684                     l4203:	
  3490                           
  3491                           ;Kscan.c: 97: Flag_first=0;
  3492  0684  12F0               	bcf	_Flag_first/(0+8),_Flag_first& (0+7)
  3493                           
  3494                           ;Kscan.c: 98: Flag_temprok=0;
  3495  0685  13F1               	bcf	_Flag_temprok/(0+8),_Flag_temprok& (0+7)
  3496                           
  3497                           ;Kscan.c: 100: break;
  3498  0686  2EAA               	goto	l4225
  3499  0687                     l4207:	
  3500                           
  3501                           ;Kscan.c: 103: if(Tempr_setdata<230)
  3502  0687  3000               	movlw	0
  3503  0688  0247               	subwf	_Tempr_setdata+1,w
  3504  0689  30E6               	movlw	230
  3505  068A  1903               	skipnz
  3506  068B  0246               	subwf	_Tempr_setdata,w
  3507  068C  1803               	skipnc
  3508  068D  2EAA               	goto	l4225
  3509                           
  3510                           ;Kscan.c: 104: {
  3511                           ;Kscan.c: 105: Tempr_setdata+=5;
  3512  068E  3005               	movlw	5
  3513  068F  07C6               	addwf	_Tempr_setdata,f
  3514  0690  1803               	skipnc
  3515  0691  0AC7               	incf	_Tempr_setdata+1,f
  3516  0692  2E84               	goto	l4203
  3517  0693                     l4215:	
  3518                           
  3519                           ;Kscan.c: 111: if(Tempr_setdata>80)
  3520  0693  3000               	movlw	0
  3521  0694  0247               	subwf	_Tempr_setdata+1,w
  3522  0695  3051               	movlw	81
  3523  0696  1903               	skipnz
  3524  0697  0246               	subwf	_Tempr_setdata,w
  3525  0698  1C03               	skipc
  3526  0699  2EAA               	goto	l4225
  3527                           
  3528                           ;Kscan.c: 112: {
  3529                           ;Kscan.c: 113: Tempr_setdata-=5;
  3530  069A  3005               	movlw	5
  3531  069B  02C6               	subwf	_Tempr_setdata,f
  3532  069C  1C03               	skipc
  3533  069D  03C7               	decf	_Tempr_setdata+1,f
  3534  069E  2E84               	goto	l4203
  3535  069F                     l4223:	
  3536  069F  084E               	movf	_Keyflash,w
  3537                           
  3538                           ; Switch size 1, requested type "space"
  3539                           ; Number of cases is 3, Range of values is 1 to 3
  3540                           ; switch strategies available:
  3541                           ; Name         Instructions Cycles
  3542                           ; simple_byte           10     6 (average)
  3543                           ; direct_byte           12     9 (fixed)
  3544                           ; jumptable            263     9 (fixed)
  3545                           ;	Chosen strategy is simple_byte
  3546  06A0  3A01               	xorlw	1	; case 1
  3547  06A1  1903               	skipnz
  3548  06A2  2E7F               	goto	l4201
  3549  06A3  3A03               	xorlw	3	; case 2
  3550  06A4  1903               	skipnz
  3551  06A5  2E87               	goto	l4207
  3552  06A6  3A01               	xorlw	1	; case 3
  3553  06A7  1903               	skipnz
  3554  06A8  2E93               	goto	l4215
  3555  06A9  2EAA               	goto	l4225
  3556  06AA                     l4225:	
  3557                           
  3558                           ;Kscan.c: 119: PID.iSetVal=Temptab[Tempr_setdata];
  3559  06AA  0847               	movf	_Tempr_setdata+1,w
  3560  06AB  00D6               	movwf	??_Kdeal+1
  3561  06AC  0846               	movf	_Tempr_setdata,w
  3562  06AD  00D5               	movwf	??_Kdeal
  3563  06AE  3081               	movlw	high (_Temptab| (0+32768))
  3564  06AF  1003               	clrc
  3565  06B0  0DD5               	rlf	??_Kdeal,f
  3566  06B1  0DD6               	rlf	??_Kdeal+1,f
  3567  06B2  0756               	addwf	??_Kdeal+1,w
  3568  06B3  00FF               	movwf	127
  3569  06B4  3012               	movlw	low (_Temptab| (0+32768))
  3570  06B5  0755               	addwf	??_Kdeal,w
  3571  06B6  0084               	movwf	4
  3572  06B7  1803               	skipnc
  3573  06B8  0AFF               	incf	127,f
  3574  06B9  2100               	fcall	stringtab
  3575  06BA  00AE               	movwf	_PID+14
  3576  06BB  2100               	fcall	stringtab
  3577  06BC  00AF               	movwf	_PID+15
  3578  06BD  0008               	return
  3579  06BE                     __end_of_Kdeal:	
  3580                           
  3581                           	psect	text449
  3582  0637                     __ptext449:	
  3583 ;; =============== function _Kdeal ends ============
  3584                           
  3585                           
  3586 ;; *************** function _Temp_setdeal *****************
  3587 ;; Defined at:
  3588 ;;		line 288 in file "E:\Elec DataSheet\\\SC8P171X_Demo  -- \ZFQ-Demo-Code -2018
      +0105_V1.0-1713s\XLD-DLZFQ-20180105_V1.0\XLD-DLZFQ-20180105_V1.0.C"
  3589 ;; Parameters:    Size  Location     Type
  3590 ;;		None
  3591 ;; Auto vars:     Size  Location     Type
  3592 ;;		None
  3593 ;; Return value:  Size  Location     Type
  3594 ;;		None               void
  3595 ;; Registers used:
  3596 ;;		wreg, status,2, status,0
  3597 ;; Tracked objects:
  3598 ;;		On entry : 60/0
  3599 ;;		On exit  : 60/0
  3600 ;;		Unchanged: FFF9F/0
  3601 ;; Data sizes:     COMMON   BANK0   BANK1
  3602 ;;      Params:         0       0       0
  3603 ;;      Locals:         0       0       0
  3604 ;;      Temps:          0       0       0
  3605 ;;      Totals:         0       0       0
  3606 ;;Total ram usage:        0 bytes
  3607 ;; Hardware stack levels used:    1
  3608 ;; Hardware stack levels required when called:    3
  3609 ;; This function calls:
  3610 ;;		Nothing
  3611 ;; This function is called by:
  3612 ;;		_main
  3613 ;; This function uses a non-reentrant model
  3614 ;;
  3615  0637                     _Temp_setdeal:	
  3616                           
  3617                           ;XLD-DLZFQ-20180105_V1.0.C: 289: if(Flag_onoff)
  3618                           
  3619                           ; Regs used in _Temp_setdeal: [wreg+status,2+status,0]
  3620  0637  1D71               	btfss	_Flag_onoff/(0+8),_Flag_onoff& (0+7)
  3621  0638  2E77               	goto	l4193
  3622                           
  3623                           ;XLD-DLZFQ-20180105_V1.0.C: 290: {
  3624                           ;XLD-DLZFQ-20180105_V1.0.C: 292: if(!Flag_first)
  3625  0639  1AF0               	btfsc	_Flag_first/(0+8),_Flag_first& (0+7)
  3626  063A  2E4E               	goto	l4171
  3627                           
  3628                           ;XLD-DLZFQ-20180105_V1.0.C: 293: {
  3629                           ;XLD-DLZFQ-20180105_V1.0.C: 294: Tempr_rank=Tempr_setdata;
  3630  063B  0847               	movf	_Tempr_setdata+1,w
  3631  063C  00C5               	movwf	_Tempr_rank+1
  3632  063D  0846               	movf	_Tempr_setdata,w
  3633  063E  00C4               	movwf	_Tempr_rank
  3634                           
  3635                           ;XLD-DLZFQ-20180105_V1.0.C: 295: if(Tempr_tdata>=Tempr_setdata)
  3636  063F  0847               	movf	_Tempr_setdata+1,w
  3637  0640  027C               	subwf	_Tempr_tdata+1,w
  3638  0641  1D03               	skipz
  3639  0642  2E45               	goto	u1835
  3640  0643  0846               	movf	_Tempr_setdata,w
  3641  0644  027B               	subwf	_Tempr_tdata,w
  3642  0645                     u1835:	
  3643  0645  1C03               	skipc
  3644  0646  2E49               	goto	l2059
  3645                           
  3646                           ;XLD-DLZFQ-20180105_V1.0.C: 296: {
  3647                           ;XLD-DLZFQ-20180105_V1.0.C: 297: Flag_temprdir=0;
  3648  0647  1371               	bcf	_Flag_temprdir/(0+8),_Flag_temprdir& (0+7)
  3649                           
  3650                           ;XLD-DLZFQ-20180105_V1.0.C: 298: }
  3651  0648  2E4A               	goto	l4167
  3652  0649                     l2059:	
  3653                           
  3654                           ;XLD-DLZFQ-20180105_V1.0.C: 299: else
  3655                           ;XLD-DLZFQ-20180105_V1.0.C: 300: {
  3656                           ;XLD-DLZFQ-20180105_V1.0.C: 301: Flag_temprdir=1;
  3657  0649  1771               	bsf	_Flag_temprdir/(0+8),_Flag_temprdir& (0+7)
  3658  064A                     l4167:	
  3659                           
  3660                           ;XLD-DLZFQ-20180105_V1.0.C: 302: }
  3661                           ;XLD-DLZFQ-20180105_V1.0.C: 304: count1=0;
  3662  064A  01CA               	clrf	_count1
  3663  064B  01CB               	clrf	_count1+1
  3664                           
  3665                           ;XLD-DLZFQ-20180105_V1.0.C: 305: Flag_first=1;
  3666  064C  16F0               	bsf	_Flag_first/(0+8),_Flag_first& (0+7)
  3667                           
  3668                           ;XLD-DLZFQ-20180105_V1.0.C: 306: }
  3669  064D  0008               	return
  3670  064E                     l4171:	
  3671                           
  3672                           ;XLD-DLZFQ-20180105_V1.0.C: 307: else
  3673                           ;XLD-DLZFQ-20180105_V1.0.C: 308: {
  3674                           ;XLD-DLZFQ-20180105_V1.0.C: 310: count1++;
  3675  064E  0ACA               	incf	_count1,f
  3676  064F  1903               	skipnz
  3677  0650  0ACB               	incf	_count1+1,f
  3678                           
  3679                           ;XLD-DLZFQ-20180105_V1.0.C: 311: if(count1>=400)
  3680  0651  3001               	movlw	1
  3681  0652  024B               	subwf	_count1+1,w
  3682  0653  3090               	movlw	144
  3683  0654  1903               	skipnz
  3684  0655  024A               	subwf	_count1,w
  3685  0656  1C03               	skipc
  3686  0657  0008               	return
  3687                           
  3688                           ;XLD-DLZFQ-20180105_V1.0.C: 312: {
  3689                           ;XLD-DLZFQ-20180105_V1.0.C: 313: count1=0;
  3690  0658  01CA               	clrf	_count1
  3691  0659  01CB               	clrf	_count1+1
  3692                           
  3693                           ;XLD-DLZFQ-20180105_V1.0.C: 314: if(!Flag_temprok)
  3694  065A  1BF1               	btfsc	_Flag_temprok/(0+8),_Flag_temprok& (0+7)
  3695  065B  2E72               	goto	l4191
  3696                           
  3697                           ;XLD-DLZFQ-20180105_V1.0.C: 315: {
  3698                           ;XLD-DLZFQ-20180105_V1.0.C: 316: Tempr_rank=Tempr_tdata;
  3699  065C  087C               	movf	_Tempr_tdata+1,w
  3700  065D  00C5               	movwf	_Tempr_rank+1
  3701  065E  087B               	movf	_Tempr_tdata,w
  3702  065F  00C4               	movwf	_Tempr_rank
  3703                           
  3704                           ;XLD-DLZFQ-20180105_V1.0.C: 318: if(Flag_temprdir==0)
  3705  0660  1B71               	btfsc	_Flag_temprdir/(0+8),_Flag_temprdir& (0+7)
  3706  0661  2E6B               	goto	l4187
  3707                           
  3708                           ;XLD-DLZFQ-20180105_V1.0.C: 319: {
  3709                           ;XLD-DLZFQ-20180105_V1.0.C: 320: if(Tempr_tdata<=Tempr_setdata)
  3710  0662  087C               	movf	_Tempr_tdata+1,w
  3711  0663  0247               	subwf	_Tempr_setdata+1,w
  3712  0664  1D03               	skipz
  3713  0665  2E68               	goto	u1875
  3714  0666  087B               	movf	_Tempr_tdata,w
  3715  0667  0246               	subwf	_Tempr_setdata,w
  3716  0668                     u1875:	
  3717  0668  1803               	btfsc	3,0
  3718                           
  3719                           ;XLD-DLZFQ-20180105_V1.0.C: 321: {
  3720                           ;XLD-DLZFQ-20180105_V1.0.C: 322: Flag_temprok=1;
  3721  0669  17F1               	bsf	_Flag_temprok/(0+8),_Flag_temprok& (0+7)
  3722  066A  0008               	return
  3723  066B                     l4187:	
  3724                           
  3725                           ;XLD-DLZFQ-20180105_V1.0.C: 325: else
  3726                           ;XLD-DLZFQ-20180105_V1.0.C: 326: {
  3727                           ;XLD-DLZFQ-20180105_V1.0.C: 327: if(Tempr_tdata>=Tempr_setdata)
  3728  066B  0847               	movf	_Tempr_setdata+1,w
  3729  066C  027C               	subwf	_Tempr_tdata+1,w
  3730  066D  1D03               	skipz
  3731  066E  2E68               	goto	u1875
  3732  066F  0846               	movf	_Tempr_setdata,w
  3733  0670  027B               	subwf	_Tempr_tdata,w
  3734  0671  2E68               	goto	u1875
  3735  0672                     l4191:	
  3736                           
  3737                           ;XLD-DLZFQ-20180105_V1.0.C: 333: else
  3738                           ;XLD-DLZFQ-20180105_V1.0.C: 334: {
  3739                           ;XLD-DLZFQ-20180105_V1.0.C: 335: Tempr_rank=Tempr_setdata;
  3740  0672  0847               	movf	_Tempr_setdata+1,w
  3741  0673  00C5               	movwf	_Tempr_rank+1
  3742  0674  0846               	movf	_Tempr_setdata,w
  3743  0675  00C4               	movwf	_Tempr_rank
  3744  0676  0008               	return
  3745  0677                     l4193:	
  3746                           
  3747                           ;XLD-DLZFQ-20180105_V1.0.C: 343: else
  3748                           ;XLD-DLZFQ-20180105_V1.0.C: 344: {
  3749                           ;XLD-DLZFQ-20180105_V1.0.C: 345: count1=0;
  3750  0677  01CA               	clrf	_count1
  3751  0678  01CB               	clrf	_count1+1
  3752                           
  3753                           ;XLD-DLZFQ-20180105_V1.0.C: 346: Flag_first=0;
  3754  0679  12F0               	bcf	_Flag_first/(0+8),_Flag_first& (0+7)
  3755  067A  0008               	return
  3756  067B                     __end_of_Temp_setdeal:	
  3757                           
  3758                           	psect	text450
  3759  0035                     __ptext450:	
  3760 ;; =============== function _Temp_setdeal ends ============
  3761                           
  3762                           
  3763 ;; *************** function _Init_System *****************
  3764 ;; Defined at:
  3765 ;;		line 5 in file "E:\Elec DataSheet\\\SC8P171X_Demo  -- \ZFQ-Demo-Code -201801
      +05_V1.0-1713s\XLD-DLZFQ-20180105_V1.0\XLD-DLZFQ-20180105_V1.0.C"
  3766 ;; Parameters:    Size  Location     Type
  3767 ;;		None
  3768 ;; Auto vars:     Size  Location     Type
  3769 ;;		None
  3770 ;; Return value:  Size  Location     Type
  3771 ;;		None               void
  3772 ;; Registers used:
  3773 ;;		wreg, status,2
  3774 ;; Tracked objects:
  3775 ;;		On entry : 17F/0
  3776 ;;		On exit  : 60/20
  3777 ;;		Unchanged: FFE00/0
  3778 ;; Data sizes:     COMMON   BANK0   BANK1
  3779 ;;      Params:         0       0       0
  3780 ;;      Locals:         0       0       0
  3781 ;;      Temps:          0       0       0
  3782 ;;      Totals:         0       0       0
  3783 ;;Total ram usage:        0 bytes
  3784 ;; Hardware stack levels used:    1
  3785 ;; Hardware stack levels required when called:    3
  3786 ;; This function calls:
  3787 ;;		Nothing
  3788 ;; This function is called by:
  3789 ;;		_main
  3790 ;; This function uses a non-reentrant model
  3791 ;;
  3792  0035                     _Init_System:	
  3793                           
  3794                           ; Regs used in _Init_System: [wreg+status,2]
  3795  0035  0000               	nop	;#
  3796  0036  0064               	clrwdt	;#
  3797                           
  3798                           ;XLD-DLZFQ-20180105_V1.0.C: 9: PORTA = 0;
  3799  0037  1283               	bcf	3,5	;RP0=0, select bank0
  3800  0038  1303               	bcf	3,6	;RP1=0, select bank0
  3801  0039  0185               	clrf	5	;volatile
  3802                           
  3803                           ;XLD-DLZFQ-20180105_V1.0.C: 10: PORTB = 0;
  3804  003A  0186               	clrf	6	;volatile
  3805                           
  3806                           ;XLD-DLZFQ-20180105_V1.0.C: 11: PORTC = 0;
  3807  003B  0187               	clrf	7	;volatile
  3808                           
  3809                           ;XLD-DLZFQ-20180105_V1.0.C: 13: TRISC =0XFF;
  3810  003C  30FF               	movlw	255
  3811  003D  1683               	bsf	3,5	;RP0=1, select bank1
  3812  003E  0087               	movwf	7	;volatile
  3813                           
  3814                           ;XLD-DLZFQ-20180105_V1.0.C: 14: TRISB =0X3B;
  3815  003F  303B               	movlw	59
  3816  0040  0086               	movwf	6	;volatile
  3817                           
  3818                           ;XLD-DLZFQ-20180105_V1.0.C: 15: TRISA =0X00;
  3819  0041  0185               	clrf	5	;volatile
  3820                           
  3821                           ;XLD-DLZFQ-20180105_V1.0.C: 16: TRISE=0X00;
  3822  0042  0189               	clrf	9	;volatile
  3823                           
  3824                           ;XLD-DLZFQ-20180105_V1.0.C: 18: PORTA = 0;
  3825  0043  1283               	bcf	3,5	;RP0=0, select bank0
  3826  0044  0185               	clrf	5	;volatile
  3827                           
  3828                           ;XLD-DLZFQ-20180105_V1.0.C: 19: PORTB = 0;
  3829  0045  0186               	clrf	6	;volatile
  3830                           
  3831                           ;XLD-DLZFQ-20180105_V1.0.C: 20: PORTC = 0;
  3832  0046  0187               	clrf	7	;volatile
  3833                           
  3834                           ;XLD-DLZFQ-20180105_V1.0.C: 21: LCDCON0 = 0;
  3835  0047  1683               	bsf	3,5	;RP0=1, select bank3
  3836  0048  1703               	bsf	3,6	;RP1=1, select bank3
  3837  0049  0190               	clrf	16	;volatile
  3838                           
  3839                           ;XLD-DLZFQ-20180105_V1.0.C: 23: INTCON=0;
  3840  004A  018B               	clrf	11	;volatile
  3841                           
  3842                           ;XLD-DLZFQ-20180105_V1.0.C: 24: OSCCON=0X71;
  3843  004B  3071               	movlw	113
  3844  004C  1303               	bcf	3,6	;RP1=0, select bank1
  3845  004D  008F               	movwf	15	;volatile
  3846  004E  0008               	return
  3847  004F                     __end_of_Init_System:	
  3848                           
  3849                           	psect	text451
  3850  0775                     __ptext451:	
  3851 ;; =============== function _Init_System ends ============
  3852                           
  3853                           
  3854 ;; *************** function _Check_Ntc *****************
  3855 ;; Defined at:
  3856 ;;		line 82 in file "E:\Elec DataSheet\\\SC8P171X_Demo  -- \ZFQ-Demo-Code -20180
      +105_V1.0-1713s\XLD-DLZFQ-20180105_V1.0\AD.c"
  3857 ;; Parameters:    Size  Location     Type
  3858 ;;		None
  3859 ;; Auto vars:     Size  Location     Type
  3860 ;;		None
  3861 ;; Return value:  Size  Location     Type
  3862 ;;		None               void
  3863 ;; Registers used:
  3864 ;;		wreg, status,2, status,0
  3865 ;; Tracked objects:
  3866 ;;		On entry : 60/0
  3867 ;;		On exit  : 60/0
  3868 ;;		Unchanged: FFF9F/0
  3869 ;; Data sizes:     COMMON   BANK0   BANK1
  3870 ;;      Params:         0       0       0
  3871 ;;      Locals:         0       0       0
  3872 ;;      Temps:          0       0       0
  3873 ;;      Totals:         0       0       0
  3874 ;;Total ram usage:        0 bytes
  3875 ;; Hardware stack levels used:    1
  3876 ;; Hardware stack levels required when called:    3
  3877 ;; This function calls:
  3878 ;;		Nothing
  3879 ;; This function is called by:
  3880 ;;		_Ad_testing
  3881 ;; This function uses a non-reentrant model
  3882 ;;
  3883  0775                     _Check_Ntc:	
  3884  0775                     l4029:	
  3885                           ; Regs used in _Check_Ntc: [wreg+status,2+status,0]
  3886                           
  3887                           
  3888                           ;AD.c: 84: if(Flag_ntc_onead)
  3889  0775  1CF1               	btfss	_Flag_ntc_onead/(0+8),_Flag_ntc_onead& (0+7)
  3890  0776  0008               	return
  3891                           
  3892                           ;AD.c: 85: {
  3893                           ;AD.c: 87: if(Adresult>0X3FA)
  3894  0777  3003               	movlw	3
  3895  0778  023D               	subwf	_Adresult+1,w
  3896  0779  30FB               	movlw	251
  3897  077A  1903               	skipnz
  3898  077B  023C               	subwf	_Adresult,w
  3899  077C  1C03               	skipc
  3900  077D  2F92               	goto	l4045
  3901  077E  3065               	movlw	101
  3902                           
  3903                           ;AD.c: 88: {
  3904                           ;AD.c: 89: Ntcnormaldely=0;
  3905  077F  01D2               	clrf	_Ntcnormaldely
  3906                           
  3907                           ;AD.c: 90: if(++Ntcopendely>100)
  3908  0780  0AD3               	incf	_Ntcopendely,f
  3909  0781  0253               	subwf	_Ntcopendely,w
  3910  0782  1C03               	skipc
  3911  0783  0008               	return
  3912                           
  3913                           ;AD.c: 91: {
  3914                           ;AD.c: 92: Flag_rt_open=1;
  3915  0784  15F1               	bsf	_Flag_rt_open/(0+8),_Flag_rt_open& (0+7)
  3916                           
  3917                           ;AD.c: 93: Ntcopendely=0;
  3918  0785  01D3               	clrf	_Ntcopendely
  3919  0786  2F8F               	goto	l4041
  3920  0787                     l4047:	
  3921  0787  3065               	movlw	101
  3922                           
  3923                           ;AD.c: 101: {
  3924                           ;AD.c: 102: Ntcnormaldely=0;
  3925  0788  01D2               	clrf	_Ntcnormaldely
  3926                           
  3927                           ;AD.c: 103: if(++Ntcshortdely>100)
  3928  0789  0AD4               	incf	_Ntcshortdely,f
  3929  078A  0254               	subwf	_Ntcshortdely,w
  3930  078B  1C03               	skipc
  3931  078C  0008               	return
  3932                           
  3933                           ;AD.c: 104: {
  3934                           ;AD.c: 105: Flag_rt_short=1;
  3935  078D  1671               	bsf	_Flag_rt_short/(0+8),_Flag_rt_short& (0+7)
  3936                           
  3937                           ;AD.c: 106: Ntcshortdely=0;
  3938  078E  01D4               	clrf	_Ntcshortdely
  3939  078F                     l4041:	
  3940                           
  3941                           ;AD.c: 94: Flag_hot = 0;
  3942  078F  1370               	bcf	_Flag_hot/(0+8),_Flag_hot& (0+7)
  3943                           
  3944                           ;AD.c: 96: Flag_err=1;
  3945  0790  1670               	bsf	_Flag_err/(0+8),_Flag_err& (0+7)
  3946  0791  0008               	return
  3947  0792                     l4045:	
  3948                           
  3949                           ;AD.c: 100: else if(Adresult<20)
  3950  0792  3000               	movlw	0
  3951  0793  023D               	subwf	_Adresult+1,w
  3952  0794  3014               	movlw	20
  3953  0795  1903               	skipnz
  3954  0796  023C               	subwf	_Adresult,w
  3955  0797  1C03               	btfss	3,0
  3956  0798  2F87               	goto	l4047
  3957                           
  3958                           ;AD.c: 111: else
  3959                           ;AD.c: 112: {
  3960                           ;AD.c: 114: if ( Flag_rt_short || Flag_rt_open )
  3961  0799  1A71               	btfsc	_Flag_rt_short/(0+8),_Flag_rt_short& (0+7)
  3962  079A  2F9D               	goto	l4061
  3963  079B  1DF1               	btfss	_Flag_rt_open/(0+8),_Flag_rt_open& (0+7)
  3964  079C  0008               	return
  3965  079D                     l4061:	
  3966                           
  3967                           ;AD.c: 115: {
  3968                           ;AD.c: 116: if(++Ntcnormaldely>5)
  3969  079D  3006               	movlw	6
  3970  079E  0AD2               	incf	_Ntcnormaldely,f
  3971  079F  0252               	subwf	_Ntcnormaldely,w
  3972  07A0  1C03               	skipc
  3973  07A1  0008               	return
  3974                           
  3975                           ;AD.c: 117: {
  3976                           ;AD.c: 118: Flag_rt_short= 0;
  3977  07A2  1271               	bcf	_Flag_rt_short/(0+8),_Flag_rt_short& (0+7)
  3978                           
  3979                           ;AD.c: 119: Flag_rt_open = 0;
  3980  07A3  11F1               	bcf	_Flag_rt_open/(0+8),_Flag_rt_open& (0+7)
  3981                           
  3982                           ;AD.c: 120: Flag_err=0;
  3983  07A4  1270               	bcf	_Flag_err/(0+8),_Flag_err& (0+7)
  3984  07A5  0008               	return
  3985  07A6                     __end_of_Check_Ntc:	
  3986                           
  3987                           	psect	text452
  3988  0081                     __ptext452:	
  3989 ;; =============== function _Check_Ntc ends ============
  3990                           
  3991                           
  3992 ;; *************** function _Ad_sample *****************
  3993 ;; Defined at:
  3994 ;;		line 12 in file "E:\Elec DataSheet\\\SC8P171X_Demo  -- \ZFQ-Demo-Code -20180
      +105_V1.0-1713s\XLD-DLZFQ-20180105_V1.0\AD.c"
  3995 ;; Parameters:    Size  Location     Type
  3996 ;;  adch            1    wreg     unsigned char 
  3997 ;; Auto vars:     Size  Location     Type
  3998 ;;  adch            1    1[BANK0 ] unsigned char 
  3999 ;;  i               1    2[BANK0 ] volatile unsigned char 
  4000 ;; Return value:  Size  Location     Type
  4001 ;;                  1    wreg      unsigned char 
  4002 ;; Registers used:
  4003 ;;		wreg, status,2, status,0
  4004 ;; Tracked objects:
  4005 ;;		On entry : 60/0
  4006 ;;		On exit  : 60/0
  4007 ;;		Unchanged: FFE00/0
  4008 ;; Data sizes:     COMMON   BANK0   BANK1
  4009 ;;      Params:         0       0       0
  4010 ;;      Locals:         0       2       0
  4011 ;;      Temps:          0       1       0
  4012 ;;      Totals:         0       3       0
  4013 ;;Total ram usage:        3 bytes
  4014 ;; Hardware stack levels used:    1
  4015 ;; Hardware stack levels required when called:    3
  4016 ;; This function calls:
  4017 ;;		Nothing
  4018 ;; This function is called by:
  4019 ;;		_Ad_testing
  4020 ;;		_source_v
  4021 ;; This function uses a non-reentrant model
  4022 ;;
  4023  0081                     _Ad_sample:	
  4024                           
  4025                           ; Regs used in _Ad_sample: [wreg+status,2+status,0]
  4026                           ;Ad_sample@adch stored from wreg
  4027  0081  00D6               	movwf	Ad_sample@adch
  4028                           
  4029                           ;AD.c: 14: ADCON1 = 0x00;
  4030  0082  1683               	bsf	3,5	;RP0=1, select bank1
  4031  0083  019F               	clrf	31	;volatile
  4032                           
  4033                           ;AD.c: 15: ADCON0 = 0X41 | (adch << 2);
  4034  0084  1283               	bcf	3,5	;RP0=0, select bank0
  4035  0085  0856               	movf	Ad_sample@adch,w
  4036  0086  00D5               	movwf	??_Ad_sample
  4037  0087  1003               	clrc
  4038  0088  0DD5               	rlf	??_Ad_sample,f
  4039  0089  1003               	clrc
  4040  008A  0D55               	rlf	??_Ad_sample,w
  4041  008B  3841               	iorlw	65
  4042  008C  009F               	movwf	31	;volatile
  4043  008D  0000               	nop	;#
  4044  008E  0000               	nop	;#
  4045                           
  4046                           ;AD.c: 18: GODONE = 1;
  4047  008F  1283               	bcf	3,5	;RP0=0, select bank0
  4048  0090  1303               	bcf	3,6	;RP1=0, select bank0
  4049  0091  149F               	bsf	31,1
  4050                           
  4051                           ;AD.c: 19: volatile unsigned char i = 0;
  4052  0092  01D7               	clrf	Ad_sample@i	;volatile
  4053  0093                     l1307:	
  4054                           ;AD.c: 20: while(GODONE)
  4055                           
  4056  0093  1C9F               	btfss	31,1
  4057  0094  3401               	retlw	1
  4058                           
  4059                           ;AD.c: 21: {
  4060                           ;AD.c: 22: if(0 == (--i))
  4061  0095  0BD7               	decfsz	Ad_sample@i,f	;volatile
  4062  0096  2893               	goto	l1307
  4063                           
  4064                           ;AD.c: 23: return 0;
  4065  0097  3400               	retlw	0
  4066  0098                     __end_of_Ad_sample:	
  4067                           ;AD.c: 24: }
  4068                           ;AD.c: 25: return 1;
  4069                           
  4070                           
  4071                           	psect	text453
  4072  0598                     __ptext453:	
  4073 ;; =============== function _Ad_sample ends ============
  4074                           
  4075                           
  4076 ;; *************** function _disf *****************
  4077 ;; Defined at:
  4078 ;;		line 235 in file "E:\Elec DataSheet\\\SC8P171X_Demo  -- \ZFQ-Demo-Code -2018
      +0105_V1.0-1713s\XLD-DLZFQ-20180105_V1.0\Display_lcd.c"
  4079 ;; Parameters:    Size  Location     Type
  4080 ;;  a               1    wreg     unsigned char 
  4081 ;; Auto vars:     Size  Location     Type
  4082 ;;  a               1    0[BANK0 ] unsigned char 
  4083 ;; Return value:  Size  Location     Type
  4084 ;;		None               void
  4085 ;; Registers used:
  4086 ;;		wreg, fsr0l, fsr0h, status,2, status,0
  4087 ;; Tracked objects:
  4088 ;;		On entry : 60/0
  4089 ;;		On exit  : 60/0
  4090 ;;		Unchanged: FFE00/0
  4091 ;; Data sizes:     COMMON   BANK0   BANK1
  4092 ;;      Params:         0       0       0
  4093 ;;      Locals:         0       1       0
  4094 ;;      Temps:          0       0       0
  4095 ;;      Totals:         0       1       0
  4096 ;;Total ram usage:        1 bytes
  4097 ;; Hardware stack levels used:    1
  4098 ;; Hardware stack levels required when called:    3
  4099 ;; This function calls:
  4100 ;;		Nothing
  4101 ;; This function is called by:
  4102 ;;		_Disp_Lcd
  4103 ;; This function uses a non-reentrant model
  4104 ;;
  4105  0598                     _disf:	
  4106                           
  4107                           ; Regs used in _disf: [wreg-fsr0h+status,2+status,0]
  4108                           ;disf@a stored from wreg
  4109  0598  00D5               	movwf	disf@a
  4110                           
  4111                           ;Display_lcd.c: 238: if(Display[a] & 0x01) {RB6 = Flag_bit;}
  4112  0599  3E32               	addlw	_Display& (0+255)
  4113  059A  0084               	movwf	4
  4114  059B  1383               	bcf	3,7	;select IRP bank0
  4115  059C  1C00               	btfss	0,0
  4116  059D  2DA7               	goto	l3989
  4117  059E  1D70               	btfss	_Flag_bit/(0+8),_Flag_bit& (0+7)
  4118  059F  2DA4               	goto	u1350
  4119  05A0  1283               	bcf	3,5	;RP0=0, select bank0
  4120  05A1  1303               	bcf	3,6	;RP1=0, select bank0
  4121  05A2  1706               	bsf	6,6
  4122  05A3  2DA7               	goto	l3989
  4123  05A4                     u1350:	
  4124  05A4  1283               	bcf	3,5	;RP0=0, select bank0
  4125  05A5  1303               	bcf	3,6	;RP1=0, select bank0
  4126  05A6  1306               	bcf	6,6
  4127  05A7                     l3989:	
  4128                           
  4129                           ;Display_lcd.c: 239: if(Display[a] & 0x02) {RB7 = Flag_bit;}
  4130  05A7  25E7               	fcall	PL8	;call to abstracted procedure
  4131  05A8  1C80               	btfss	0,1
  4132  05A9  2DB3               	goto	l3993
  4133  05AA  1D70               	btfss	_Flag_bit/(0+8),_Flag_bit& (0+7)
  4134  05AB  2DB0               	goto	u1380
  4135  05AC  1283               	bcf	3,5	;RP0=0, select bank0
  4136  05AD  1303               	bcf	3,6	;RP1=0, select bank0
  4137  05AE  1786               	bsf	6,7
  4138  05AF  2DB3               	goto	l3993
  4139  05B0                     u1380:	
  4140  05B0  1283               	bcf	3,5	;RP0=0, select bank0
  4141  05B1  1303               	bcf	3,6	;RP1=0, select bank0
  4142  05B2  1386               	bcf	6,7
  4143  05B3                     l3993:	
  4144                           
  4145                           ;Display_lcd.c: 240: if(Display[a] & 0x04) {RA1 = Flag_bit;}
  4146  05B3  25E7               	fcall	PL8	;call to abstracted procedure
  4147  05B4  1D00               	btfss	0,2
  4148  05B5  2DBF               	goto	l3997
  4149  05B6  1D70               	btfss	_Flag_bit/(0+8),_Flag_bit& (0+7)
  4150  05B7  2DBC               	goto	u1410
  4151  05B8  1283               	bcf	3,5	;RP0=0, select bank0
  4152  05B9  1303               	bcf	3,6	;RP1=0, select bank0
  4153  05BA  1485               	bsf	5,1
  4154  05BB  2DBF               	goto	l3997
  4155  05BC                     u1410:	
  4156  05BC  1283               	bcf	3,5	;RP0=0, select bank0
  4157  05BD  1303               	bcf	3,6	;RP1=0, select bank0
  4158  05BE  1085               	bcf	5,1
  4159  05BF                     l3997:	
  4160                           
  4161                           ;Display_lcd.c: 241: if(Display[a] & 0x08) {RA2 = Flag_bit;}
  4162  05BF  25E7               	fcall	PL8	;call to abstracted procedure
  4163  05C0  1D80               	btfss	0,3
  4164  05C1  2DCB               	goto	l4001
  4165  05C2  1D70               	btfss	_Flag_bit/(0+8),_Flag_bit& (0+7)
  4166  05C3  2DC8               	goto	u1440
  4167  05C4  1283               	bcf	3,5	;RP0=0, select bank0
  4168  05C5  1303               	bcf	3,6	;RP1=0, select bank0
  4169  05C6  1505               	bsf	5,2
  4170  05C7  2DCB               	goto	l4001
  4171  05C8                     u1440:	
  4172  05C8  1283               	bcf	3,5	;RP0=0, select bank0
  4173  05C9  1303               	bcf	3,6	;RP1=0, select bank0
  4174  05CA  1105               	bcf	5,2
  4175  05CB                     l4001:	
  4176                           
  4177                           ;Display_lcd.c: 242: if(Display[a] & 0x010) {RA3 = Flag_bit;}
  4178  05CB  25E7               	fcall	PL8	;call to abstracted procedure
  4179  05CC  1E00               	btfss	0,4
  4180  05CD  2DD7               	goto	l4005
  4181  05CE  1D70               	btfss	_Flag_bit/(0+8),_Flag_bit& (0+7)
  4182  05CF  2DD4               	goto	u1470
  4183  05D0  1283               	bcf	3,5	;RP0=0, select bank0
  4184  05D1  1303               	bcf	3,6	;RP1=0, select bank0
  4185  05D2  1585               	bsf	5,3
  4186  05D3  2DD7               	goto	l4005
  4187  05D4                     u1470:	
  4188  05D4  1283               	bcf	3,5	;RP0=0, select bank0
  4189  05D5  1303               	bcf	3,6	;RP1=0, select bank0
  4190  05D6  1185               	bcf	5,3
  4191  05D7                     l4005:	
  4192                           
  4193                           ;Display_lcd.c: 243: if(Display[a] & 0x020) {RA4 = Flag_bit;}
  4194  05D7  0855               	movf	disf@a,w
  4195  05D8  3E32               	addlw	_Display& (0+255)
  4196  05D9  0084               	movwf	4
  4197  05DA  1383               	bcf	3,7	;select IRP bank0
  4198  05DB  1E80               	btfss	0,5
  4199  05DC  0008               	return
  4200  05DD  1D70               	btfss	_Flag_bit/(0+8),_Flag_bit& (0+7)
  4201  05DE  2DE3               	goto	u1500
  4202  05DF  1283               	bcf	3,5	;RP0=0, select bank0
  4203  05E0  1303               	bcf	3,6	;RP1=0, select bank0
  4204  05E1  1605               	bsf	5,4
  4205  05E2  0008               	return
  4206  05E3                     u1500:	
  4207  05E3  1283               	bcf	3,5	;RP0=0, select bank0
  4208  05E4  1303               	bcf	3,6	;RP1=0, select bank0
  4209  05E5  1205               	bcf	5,4
  4210  05E6  0008               	return
  4211  05E7                     __end_of_disf:	
  4212  05E7                     PL8:	
  4213  05E7  0855               	movf	disf@a,w
  4214  05E8  3E32               	addlw	_Display& (0+255)
  4215  05E9  0084               	movwf	4
  4216  05EA  1383               	bcf	3,7	;select IRP bank0
  4217  05EB  0008               	return
  4218                           
  4219                           	psect	text454
  4220  0068                     __ptext454:	
  4221 ;; =============== function _disf ends ============
  4222                           
  4223                           
  4224 ;; *************** function _Isr_Timer *****************
  4225 ;; Defined at:
  4226 ;;		line 109 in file "E:\Elec DataSheet\\\SC8P171X_Demo  -- \ZFQ-Demo-Code -2018
      +0105_V1.0-1713s\XLD-DLZFQ-20180105_V1.0\XLD-DLZFQ-20180105_V1.0.C"
  4227 ;; Parameters:    Size  Location     Type
  4228 ;;		None
  4229 ;; Auto vars:     Size  Location     Type
  4230 ;;		None
  4231 ;; Return value:  Size  Location     Type
  4232 ;;		None               void
  4233 ;; Registers used:
  4234 ;;		wreg, fsr0l, fsr0h, status,2, status,0, btemp+1, pclath, cstack
  4235 ;; Tracked objects:
  4236 ;;		On entry : 0/0
  4237 ;;		On exit  : 60/0
  4238 ;;		Unchanged: FFE9F/0
  4239 ;; Data sizes:     COMMON   BANK0   BANK1
  4240 ;;      Params:         0       0       0
  4241 ;;      Locals:         0       0       0
  4242 ;;      Temps:          4       0       0
  4243 ;;      Totals:         4       0       0
  4244 ;;Total ram usage:        4 bytes
  4245 ;; Hardware stack levels used:    1
  4246 ;; Hardware stack levels required when called:    2
  4247 ;; This function calls:
  4248 ;;		_AcTestZero
  4249 ;;		_ScrControl
  4250 ;;		_Tmper_pro
  4251 ;; This function is called by:
  4252 ;;		Interrupt level 1
  4253 ;; This function uses a non-reentrant model
  4254 ;;
  4255  0068                     _Isr_Timer:	
  4256                           
  4257                           ;XLD-DLZFQ-20180105_V1.0.C: 110: if(TMR2IF&&TMR2ON)
  4258  0068  188C               	btfsc	12,1
  4259  0069  1D12               	btfss	18,2
  4260  006A  2876               	goto	i1l2012
  4261  006B  3014               	movlw	20
  4262                           
  4263                           ;XLD-DLZFQ-20180105_V1.0.C: 111: {
  4264                           ;XLD-DLZFQ-20180105_V1.0.C: 112: TMR2IF = 0;
  4265  006C  108C               	bcf	12,1
  4266                           
  4267                           ;XLD-DLZFQ-20180105_V1.0.C: 113: Maintime++;
  4268  006D  0AD1               	incf	_Maintime,f
  4269                           
  4270                           ;XLD-DLZFQ-20180105_V1.0.C: 114: if(Maintime >= 20)
  4271  006E  0251               	subwf	_Maintime,w
  4272  006F  1C03               	skipc
  4273  0070  2873               	goto	i1l4129
  4274                           
  4275                           ;XLD-DLZFQ-20180105_V1.0.C: 115: {
  4276                           ;XLD-DLZFQ-20180105_V1.0.C: 116: Maintime = 0;
  4277  0071  01D1               	clrf	_Maintime
  4278                           
  4279                           ;XLD-DLZFQ-20180105_V1.0.C: 117: Flag_mainloop = 1;
  4280  0072  1471               	bsf	_Flag_mainloop/(0+8),_Flag_mainloop& (0+7)
  4281  0073                     i1l4129:	
  4282                           
  4283                           ;XLD-DLZFQ-20180105_V1.0.C: 118: }
  4284                           ;XLD-DLZFQ-20180105_V1.0.C: 119: AcTestZero();
  4285  0073  20AF               	fcall	_AcTestZero
  4286                           
  4287                           ;XLD-DLZFQ-20180105_V1.0.C: 120: ScrControl();
  4288  0074  2098               	fcall	_ScrControl
  4289                           
  4290                           ;XLD-DLZFQ-20180105_V1.0.C: 122: Tmper_pro();
  4291  0075  26FD               	fcall	_Tmper_pro
  4292  0076                     i1l2012:	
  4293  0076  087A               	movf	??_Isr_Timer+3,w
  4294  0077  00FF               	movwf	127
  4295  0078  0879               	movf	??_Isr_Timer+2,w
  4296  0079  008A               	movwf	10
  4297  007A  0878               	movf	??_Isr_Timer+1,w
  4298  007B  0084               	movwf	4
  4299  007C  0E77               	swapf	??_Isr_Timer^(0+-128),w
  4300  007D  0083               	movwf	3
  4301  007E  0EFE               	swapf	126,f
  4302  007F  0E7E               	swapf	126,w
  4303  0080  0009               	retfie
  4304  0081                     __end_of_Isr_Timer:	
  4305                           
  4306                           	psect	intentry
  4307  0004                     __pintentry:	
  4308                           ; Regs used in _Isr_Timer: [wreg-fsr0h+status,2+status,0+btemp+1+pclath+cstack]
  4309                           
  4310  0004                     interrupt_function:	
  4311  007E                     saved_w	set	btemp
  4312  0004  00FE               	movwf	btemp
  4313  0005  0E03               	swapf	3,w
  4314  0006  00F7               	movwf	??_Isr_Timer
  4315  0007  0804               	movf	4,w
  4316  0008  00F8               	movwf	??_Isr_Timer+1
  4317  0009  080A               	movf	10,w
  4318  000A  00F9               	movwf	??_Isr_Timer+2
  4319  000B  1283               	bcf	3,5	;RP0=0, select bank0
  4320  000C  1303               	bcf	3,6	;RP1=0, select bank0
  4321  000D  087F               	movf	btemp+1,w
  4322  000E  00FA               	movwf	??_Isr_Timer+3
  4323  000F  2868               	ljmp	_Isr_Timer
  4324                           
  4325                           	psect	text455
  4326  06FD                     __ptext455:	
  4327 ;; =============== function _Isr_Timer ends ============
  4328                           
  4329                           
  4330 ;; *************** function _Tmper_pro *****************
  4331 ;; Defined at:
  4332 ;;		line 355 in file "E:\Elec DataSheet\\\SC8P171X_Demo  -- \ZFQ-Demo-Code -2018
      +0105_V1.0-1713s\XLD-DLZFQ-20180105_V1.0\XLD-DLZFQ-20180105_V1.0.C"
  4333 ;; Parameters:    Size  Location     Type
  4334 ;;		None
  4335 ;; Auto vars:     Size  Location     Type
  4336 ;;		None
  4337 ;; Return value:  Size  Location     Type
  4338 ;;		None               void
  4339 ;; Registers used:
  4340 ;;		wreg, fsr0l, fsr0h, status,2, status,0, btemp+1, pclath
  4341 ;; Tracked objects:
  4342 ;;		On entry : 60/0
  4343 ;;		On exit  : 60/0
  4344 ;;		Unchanged: FFE9F/0
  4345 ;; Data sizes:     COMMON   BANK0   BANK1
  4346 ;;      Params:         0       0       0
  4347 ;;      Locals:         0       0       0
  4348 ;;      Temps:          4       0       0
  4349 ;;      Totals:         4       0       0
  4350 ;;Total ram usage:        4 bytes
  4351 ;; Hardware stack levels used:    2
  4352 ;; This function calls:
  4353 ;;		Nothing
  4354 ;; This function is called by:
  4355 ;;		_Isr_Timer
  4356 ;; This function uses a non-reentrant model
  4357 ;;
  4358  06FD                     _Tmper_pro:	
  4359                           
  4360                           ;XLD-DLZFQ-20180105_V1.0.C: 356: static unsigned int n=0;
  4361                           ;XLD-DLZFQ-20180105_V1.0.C: 357: if(Flag_ntc_onead)
  4362                           
  4363                           ; Regs used in _Tmper_pro: [wreg-fsr0h+status,2+status,0+btemp+1+pclath]
  4364  06FD  1CF1               	btfss	_Flag_ntc_onead/(0+8),_Flag_ntc_onead& (0+7)
  4365  06FE  0008               	return
  4366                           
  4367                           ;XLD-DLZFQ-20180105_V1.0.C: 358: {
  4368                           ;XLD-DLZFQ-20180105_V1.0.C: 359: if(!Flag_step)
  4369  06FF  1AF1               	btfsc	_Flag_step/(0+8),_Flag_step& (0+7)
  4370  0700  2F07               	goto	i1l4143
  4371                           
  4372                           ;XLD-DLZFQ-20180105_V1.0.C: 360: {
  4373                           ;XLD-DLZFQ-20180105_V1.0.C: 361: Tmper_temp=PID.iCurVal;
  4374  0701  0831               	movf	_PID+17,w
  4375  0702  00C9               	movwf	_Tmper_temp+1
  4376  0703  0830               	movf	_PID+16,w
  4377  0704  00C8               	movwf	_Tmper_temp
  4378                           
  4379                           ;XLD-DLZFQ-20180105_V1.0.C: 362: Flag_step=1;
  4380  0705  16F1               	bsf	_Flag_step/(0+8),_Flag_step& (0+7)
  4381                           
  4382                           ;XLD-DLZFQ-20180105_V1.0.C: 363: }
  4383  0706  0008               	return
  4384  0707                     i1l4143:	
  4385                           
  4386                           ;XLD-DLZFQ-20180105_V1.0.C: 364: else
  4387                           ;XLD-DLZFQ-20180105_V1.0.C: 365: {
  4388                           ;XLD-DLZFQ-20180105_V1.0.C: 367: if(Tmper_temp>Temptab[n])
  4389  0707  0837               	movf	Tmper_pro@n+1,w
  4390  0708  00F4               	movwf	??_Tmper_pro+1
  4391  0709  0836               	movf	Tmper_pro@n,w
  4392  070A  00F3               	movwf	??_Tmper_pro
  4393  070B  3081               	movlw	high (_Temptab| (0+32768))
  4394  070C  1003               	clrc
  4395  070D  0DF3               	rlf	??_Tmper_pro,f
  4396  070E  0DF4               	rlf	??_Tmper_pro+1,f
  4397  070F  0774               	addwf	??_Tmper_pro+1,w
  4398  0710  00FF               	movwf	127
  4399  0711  3012               	movlw	low (_Temptab| (0+32768))
  4400  0712  0773               	addwf	??_Tmper_pro,w
  4401  0713  0084               	movwf	4
  4402  0714  1803               	skipnc
  4403  0715  0AFF               	incf	127,f
  4404  0716  2100               	fcall	stringtab
  4405  0717  00F5               	movwf	??_Tmper_pro+2
  4406  0718  2100               	fcall	stringtab
  4407  0719  00F6               	movwf	??_Tmper_pro+3
  4408  071A  0849               	movf	_Tmper_temp+1,w
  4409  071B  0276               	subwf	??_Tmper_pro+3,w
  4410  071C  1D03               	skipz
  4411  071D  2F20               	goto	u179_25
  4412  071E  0848               	movf	_Tmper_temp,w
  4413  071F  0275               	subwf	??_Tmper_pro+2,w
  4414  0720                     u179_25:	
  4415  0720  1803               	skipnc
  4416  0721  2F33               	goto	i1l4153
  4417                           
  4418                           ;XLD-DLZFQ-20180105_V1.0.C: 368: {
  4419                           ;XLD-DLZFQ-20180105_V1.0.C: 369: n++;
  4420  0722  0AB6               	incf	Tmper_pro@n,f
  4421  0723  1903               	skipnz
  4422  0724  0AB7               	incf	Tmper_pro@n+1,f
  4423                           
  4424                           ;XLD-DLZFQ-20180105_V1.0.C: 370: if(n>=236)
  4425  0725  3000               	movlw	0
  4426  0726  0237               	subwf	Tmper_pro@n+1,w
  4427  0727  30EC               	movlw	236
  4428  0728  1903               	skipnz
  4429  0729  0236               	subwf	Tmper_pro@n,w
  4430  072A  1C03               	skipc
  4431  072B  0008               	return
  4432                           
  4433                           ;XLD-DLZFQ-20180105_V1.0.C: 371: {
  4434                           ;XLD-DLZFQ-20180105_V1.0.C: 372: n=236;
  4435  072C  30EC               	movlw	236
  4436  072D  00B6               	movwf	Tmper_pro@n
  4437  072E  01B7               	clrf	Tmper_pro@n+1
  4438                           
  4439                           ;XLD-DLZFQ-20180105_V1.0.C: 373: Tempr_tdata=236;
  4440  072F  00FB               	movwf	_Tempr_tdata
  4441  0730  01FC               	clrf	_Tempr_tdata+1
  4442  0731                     i1l4151:	
  4443                           
  4444                           ;XLD-DLZFQ-20180105_V1.0.C: 374: Flag_step=0;
  4445  0731  12F1               	bcf	_Flag_step/(0+8),_Flag_step& (0+7)
  4446  0732  0008               	return
  4447  0733                     i1l4153:	
  4448                           
  4449                           ;XLD-DLZFQ-20180105_V1.0.C: 377: else
  4450                           ;XLD-DLZFQ-20180105_V1.0.C: 378: {
  4451                           ;XLD-DLZFQ-20180105_V1.0.C: 379: Tempr_tdata=n;
  4452  0733  0837               	movf	Tmper_pro@n+1,w
  4453  0734  00FC               	movwf	_Tempr_tdata+1
  4454  0735  0836               	movf	Tmper_pro@n,w
  4455  0736  00FB               	movwf	_Tempr_tdata
  4456                           
  4457                           ;XLD-DLZFQ-20180105_V1.0.C: 380: n=0;
  4458  0737  01B6               	clrf	Tmper_pro@n
  4459  0738  01B7               	clrf	Tmper_pro@n+1
  4460  0739  2F31               	goto	i1l4151
  4461  073A                     __end_of_Tmper_pro:	
  4462                           
  4463                           	psect	text456
  4464  0098                     __ptext456:	
  4465 ;; =============== function _Tmper_pro ends ============
  4466                           
  4467                           
  4468 ;; *************** function _ScrControl *****************
  4469 ;; Defined at:
  4470 ;;		line 71 in file "E:\Elec DataSheet\\\SC8P171X_Demo  -- \ZFQ-Demo-Code -20180
      +105_V1.0-1713s\XLD-DLZFQ-20180105_V1.0\XLD-DLZFQ-20180105_V1.0.C"
  4471 ;; Parameters:    Size  Location     Type
  4472 ;;		None
  4473 ;; Auto vars:     Size  Location     Type
  4474 ;;		None
  4475 ;; Return value:  Size  Location     Type
  4476 ;;		None               void
  4477 ;; Registers used:
  4478 ;;		wreg, status,2, status,0
  4479 ;; Tracked objects:
  4480 ;;		On entry : 60/0
  4481 ;;		On exit  : 60/0
  4482 ;;		Unchanged: FFF9F/0
  4483 ;; Data sizes:     COMMON   BANK0   BANK1
  4484 ;;      Params:         0       0       0
  4485 ;;      Locals:         0       0       0
  4486 ;;      Temps:          0       0       0
  4487 ;;      Totals:         0       0       0
  4488 ;;Total ram usage:        0 bytes
  4489 ;; Hardware stack levels used:    1
  4490 ;; This function calls:
  4491 ;;		Nothing
  4492 ;; This function is called by:
  4493 ;;		_Isr_Timer
  4494 ;; This function uses a non-reentrant model
  4495 ;;
  4496  0098                     _ScrControl:	
  4497                           
  4498                           ;XLD-DLZFQ-20180105_V1.0.C: 73: if(Flag_hot&&Flag_zero)
  4499                           
  4500                           ; Regs used in _ScrControl: [wreg+status,2+status,0]
  4501  0098  1B70               	btfsc	_Flag_hot/(0+8),_Flag_hot& (0+7)
  4502  0099  1CF2               	btfss	_Flag_zero/(0+8),_Flag_zero& (0+7)
  4503  009A  28AB               	goto	i1l2001
  4504                           
  4505                           ;XLD-DLZFQ-20180105_V1.0.C: 74: {
  4506                           ;XLD-DLZFQ-20180105_V1.0.C: 75: if(Flag_HV)
  4507  009B  1C70               	btfss	_Flag_HV/(0+8),_Flag_HV& (0+7)
  4508  009C  289F               	goto	i1l4099
  4509                           
  4510                           ;XLD-DLZFQ-20180105_V1.0.C: 76: {
  4511                           ;XLD-DLZFQ-20180105_V1.0.C: 77: if(Flag_vtemp)
  4512  009D  1C72               	btfss	_Flag_vtemp/(0+8),_Flag_vtemp& (0+7)
  4513  009E  28A0               	goto	i1l4101
  4514  009F                     i1l4099:	
  4515                           
  4516                           ;XLD-DLZFQ-20180105_V1.0.C: 78: RB2=0;
  4517  009F  1106               	bcf	6,2
  4518  00A0                     i1l4101:	
  4519  00A0  3005               	movlw	5
  4520                           
  4521                           ;XLD-DLZFQ-20180105_V1.0.C: 83: Kkg_dly++;
  4522  00A1  0AD0               	incf	_Kkg_dly,f
  4523                           
  4524                           ;XLD-DLZFQ-20180105_V1.0.C: 84: if(Kkg_dly>=5)
  4525  00A2  0250               	subwf	_Kkg_dly,w
  4526  00A3  1C03               	skipc
  4527  00A4  0008               	return
  4528                           
  4529                           ;XLD-DLZFQ-20180105_V1.0.C: 85: {
  4530                           ;XLD-DLZFQ-20180105_V1.0.C: 86: Flag_vtemp=~Flag_vtemp;
  4531  00A5  3001               	movlw	(0+1) shl (_Flag_vtemp& (0+7))
  4532  00A6  06F2               	xorwf	_Flag_vtemp/(0+8),f
  4533                           
  4534                           ;XLD-DLZFQ-20180105_V1.0.C: 87: Flag_zero=0;
  4535  00A7  10F2               	bcf	_Flag_zero/(0+8),_Flag_zero& (0+7)
  4536                           
  4537                           ;XLD-DLZFQ-20180105_V1.0.C: 88: Kkg_dly=0;
  4538  00A8  01D0               	clrf	_Kkg_dly
  4539                           
  4540                           ;XLD-DLZFQ-20180105_V1.0.C: 89: RB2=1;
  4541  00A9  1506               	bsf	6,2
  4542  00AA  0008               	return
  4543  00AB                     i1l2001:	
  4544                           
  4545                           ;XLD-DLZFQ-20180105_V1.0.C: 92: else
  4546                           ;XLD-DLZFQ-20180105_V1.0.C: 93: {
  4547                           ;XLD-DLZFQ-20180105_V1.0.C: 94: RB2=1;
  4548  00AB  1506               	bsf	6,2
  4549                           
  4550                           ;XLD-DLZFQ-20180105_V1.0.C: 95: Flag_zero=0;
  4551  00AC  10F2               	bcf	_Flag_zero/(0+8),_Flag_zero& (0+7)
  4552                           
  4553                           ;XLD-DLZFQ-20180105_V1.0.C: 96: Kkg_dly=0;
  4554  00AD  01D0               	clrf	_Kkg_dly
  4555  00AE  0008               	return
  4556  00AF                     __end_of_ScrControl:	
  4557                           
  4558                           	psect	text457
  4559  00AF                     __ptext457:	
  4560 ;; =============== function _ScrControl ends ============
  4561                           
  4562                           
  4563 ;; *************** function _AcTestZero *****************
  4564 ;; Defined at:
  4565 ;;		line 39 in file "E:\Elec DataSheet\\\SC8P171X_Demo  -- \ZFQ-Demo-Code -20180
      +105_V1.0-1713s\XLD-DLZFQ-20180105_V1.0\XLD-DLZFQ-20180105_V1.0.C"
  4566 ;; Parameters:    Size  Location     Type
  4567 ;;		None
  4568 ;; Auto vars:     Size  Location     Type
  4569 ;;		None
  4570 ;; Return value:  Size  Location     Type
  4571 ;;		None               void
  4572 ;; Registers used:
  4573 ;;		None
  4574 ;; Tracked objects:
  4575 ;;		On entry : 60/0
  4576 ;;		On exit  : 60/0
  4577 ;;		Unchanged: FFF9F/0
  4578 ;; Data sizes:     COMMON   BANK0   BANK1
  4579 ;;      Params:         0       0       0
  4580 ;;      Locals:         0       0       0
  4581 ;;      Temps:          0       0       0
  4582 ;;      Totals:         0       0       0
  4583 ;;Total ram usage:        0 bytes
  4584 ;; Hardware stack levels used:    1
  4585 ;; This function calls:
  4586 ;;		Nothing
  4587 ;; This function is called by:
  4588 ;;		_Isr_Timer
  4589 ;; This function uses a non-reentrant model
  4590 ;;
  4591  00AF                     _AcTestZero:	
  4592                           
  4593                           ;XLD-DLZFQ-20180105_V1.0.C: 40: if(Flag_ach)
  4594                           
  4595                           ; Regs used in _AcTestZero: []
  4596  00AF  1CF0               	btfss	_Flag_ach/(0+8),_Flag_ach& (0+7)
  4597  00B0  28B9               	goto	i1l1994
  4598                           
  4599                           ;XLD-DLZFQ-20180105_V1.0.C: 41: {
  4600                           ;XLD-DLZFQ-20180105_V1.0.C: 42: if ((!RB5)&&(!RB5)&&(!RB5))
  4601  00B1  1A86               	btfsc	6,5
  4602  00B2  0008               	return
  4603  00B3  1E86               	btfss	6,5
  4604  00B4  1A86               	btfsc	6,5
  4605  00B5  0008               	return
  4606                           
  4607                           ;XLD-DLZFQ-20180105_V1.0.C: 43: {
  4608                           ;XLD-DLZFQ-20180105_V1.0.C: 44: Flag_ach=0;
  4609  00B6  10F0               	bcf	_Flag_ach/(0+8),_Flag_ach& (0+7)
  4610                           
  4611                           ;XLD-DLZFQ-20180105_V1.0.C: 45: Flag_zero=1;
  4612  00B7  14F2               	bsf	_Flag_zero/(0+8),_Flag_zero& (0+7)
  4613  00B8  0008               	return
  4614  00B9                     i1l1994:	
  4615                           
  4616                           ;XLD-DLZFQ-20180105_V1.0.C: 48: else
  4617                           ;XLD-DLZFQ-20180105_V1.0.C: 49: {
  4618                           ;XLD-DLZFQ-20180105_V1.0.C: 50: if (RB5&&RB5&&RB5)
  4619  00B9  1A86               	btfsc	6,5
  4620  00BA  1E86               	btfss	6,5
  4621  00BB  0008               	return
  4622  00BC  1E86               	btfss	6,5
  4623  00BD  0008               	return
  4624                           
  4625                           ;XLD-DLZFQ-20180105_V1.0.C: 51: {
  4626                           ;XLD-DLZFQ-20180105_V1.0.C: 52: Flag_ach=1;
  4627  00BE  14F0               	bsf	_Flag_ach/(0+8),_Flag_ach& (0+7)
  4628                           
  4629                           ;XLD-DLZFQ-20180105_V1.0.C: 53: Flag_zero=1;
  4630  00BF  14F2               	bsf	_Flag_zero/(0+8),_Flag_zero& (0+7)
  4631  00C0  0008               	return
  4632  00C1                     __end_of_AcTestZero:	
  4633                           
  4634                           	psect	text458
  4635  0000                     __ptext458:	
  4636 ;; =============== function _AcTestZero ends ============
  4637                           
  4638  007E                     btemp	set	126	;btemp
  4639  007E                     wtemp0	set	126


HI-TECH Software PICC Macro Assembler V9.83 build 10920 
Symbol Table                                                                                   Sun Apr 21 15:43:54 2019

                     pc 0002                      fsr 0004     ___wmul@multiplicand 0057              _Ad_testing 051B  
                   l630 0443                     l631 0446                     l640 0461                     l632 0449  
                   l641 0464                     l633 044C                     l642 0467                     l634 044F  
                   l643 046A                     l635 0452                     l644 046D                     l636 0455  
                   l645 0470                     l637 0458                     l629 0440                     l646 0473  
                   l638 045B                     l654 04A6                     l647 0476                     l639 045E  
                   l655 04A8                     l648 0479                     l656 04B1                     l669 04F6  
                   _RA1 0029                     _RA2 002A                     _RA3 002B                     _RC0 0038  
                   _RB2 0032                     _RA4 002C                     _RC1 0039                     _RC2 003A  
                   _RC3 003B                     _RB5 0035                     _RE0 0048                     _RB6 0036  
                   _RB7 0037                     _PR2 0092                     _PID 0020                     fsr0 0004  
                   indf 0000                    S4729 00DA                    l1322 0000                    l1307 0093  
                  l1316 055B                    l2046 03E2                    l1344 06FB                    l4001 05CB  
                  l4011 0000                    l2059 0649                    l4005 05D7                    l4021 0000  
                  l4013 0000                    l4015 0000                    l4017 0000                    l4009 0000  
                  l4041 078F                    l4201 067F                    l4019 0000                    l4043 0000  
                  l4035 0000                    l4203 0684                    l4061 079D                    l4053 0000  
                  l4045 0792                    l4029 0775                    l4205 0000                    l4301 0000  
                  l2710 0604                    l4047 0787                    l4039 0000                    l4071 0000  
                  l4215 0693                    l4207 0687                    l4223 069F                    l4231 00D1  
                  l4303 0000                    l4049 0000                    l4073 0000                    l4065 0000  
                  l4225 06AA                    l4241 0000                    l4233 0000                    l4401 0000  
                  l2713 0631                    l4067 0000                    l4171 064E                    l4227 0000  
                  l4243 0000                    l4235 0051                    l4251 0000                    l4411 04D3  
                  l4403 04CE                    l2740 0000                    l2708 0600                    l4069 0000  
                  l4181 0000                    l4173 0000                    l4229 0000                    l4261 0000  
                  l4421 0000                    l4413 0000                    l4405 0000                    l2709 0608  
                  l4191 0672                    l4167 064A                    l4159 0000                    l4239 0059  
                  l4271 07CB                    l4431 0000                    l4423 0000                    l4415 0000  
                  l4407 0000                    l4511 06E5                    l4503 0000                    l2752 0000  
                  l4177 0000                    l4169 0000                    l4193 0677                    l4265 0000  
                  l4249 0000                    l4353 0000                    l4441 0000                    l4433 0000  
                  l4425 0000                    l4417 0000                    l4409 0000                    l4361 0000  
                  l4513 0000                    l4601 034C                    l2762 0000                    l4195 0000  
                  l4187 066B                    l4259 07B4                    l4283 001D                    l4291 0030  
                  l4275 0000                    l4355 0485                    l4427 04DD                    l4419 04D8  
                  l4371 04B8                    l4363 0000                    l4515 0000                    l4507 0000  
                  l4531 0000                    l4611 0000                    l4603 0000                    l2772 0000  
                  l4197 0000                    l4269 0000                    l4349 0000                    l4429 0000  
                  l4381 0000                    l4373 0000                    l4437 04E2                    l4365 0000  
                  l4357 0000                    l4453 0000                    l4517 06E9                    l4533 0000  
                  l4525 0000                    l4621 0000                    l4613 037C                    l4605 0356  
                  l4701 0000                    l1991 0000                    l4295 0000                    l4391 0000  
                  l4383 0000                    l4439 04ED                    l4375 0000                    l4359 0000  
                  l4463 0000                    l4519 0000                    l4543 0000                    l4535 0000  
                  l4527 0000                    l4623 0000                    l4615 0000                    l4607 0000  
                  l4703 0000                    l4289 0000                    l4297 0000                    l4393 0000  
                  l4385 0000                    l4377 0000                    l4481 0000                    l4473 0000  
                  l4465 0542                    l4457 0000                    l4553 0000                    l4561 0626  
                  l4529 0000                    l4633 03D2                    l4617 0395                    l4705 0000  
                  l4299 0000                    l4395 04C9                    l4387 04C4                    l4379 04BE  
                  l4483 0000                    l4491 058F                    l4459 0000                    l4571 0000  
                  l4563 0000                    l4627 03C3                    l4619 0000                    l4707 0000  
                  l4397 0000                    l4389 0000                    l4485 0000                    l4477 0000  
                  l4469 054F                    l4493 0000                    l4565 0000                    l4557 0000  
                  l4637 03DC                    l4629 03C9                    l4645 0406                    l4573 0000  
                  l4653 0000                    l4399 0000                    l4487 0000                    l4479 0000  
                  l4559 0000                    l4591 0000                    l4583 0320                    l4575 0000  
                  l4663 074F                    l4489 058E                    l4569 0000                    l4593 0000  
                  l4585 0325                    l4577 0000                    l4665 0751                    l4657 0000  
                  l4649 0000                    l4681 0000                    l4673 0000                    l4499 06C6  
                  l4595 0000                    l4587 0000                    l4579 0000                    l4659 0749  
                  l4691 0000                    l4683 0000                    l4675 0000                    l4589 0000  
                  l4669 0770                    l4693 07E8                    l4685 0000                    l4677 0000  
                  l4599 0000                    l4687 0000                    l4679 0000                    l3993 05B3  
                  l3985 0000                    l4697 0000                    l4689 0000                    l4699 0000  
                  l3997 05BF                    l3989 05A7                    u2015 0023                    u1410 05BC  
                  u1500 05E3                    u1350 05A4                    u1440 05C8                    u2315 0530  
                  u1380 05B0                    u1470 05D4                    u2510 0300                    u2335 0548  
                  u2345 0555                    u2525 030F                    _PIE1 008C                    u2545 0340  
                  u1835 0645                    u2555 0368                    u2655 076C                    u1875 0668  
                  u2595 03EE                    u1975 07BD                    _WPUA 018E                    _Keyc 004D  
                  _disf 0598                    _main 07D0                    btemp 007E                    start 0010  
         ??_Init_System 0055              _Flag_first 0385              _Flag_onoff 038A              _Flag_vtemp 0390  
                 ?_disf 0073                   ?_main 0073                   _COMEN 0197                   _T2CON 0012  
       __end_of___lwdiv 07D0         __end_of___lwmod 0035                   _PORTA 0005                   _PORTB 0006  
                 _PORTC 0007                   _TRISA 0085                   _TRISB 0086                   _TRISC 0087  
                 _TRISE 0089                   _Admax 0038                   _Admin 003A                   _Adsum 003E  
                 _Delay 00CE                   _Kdeal 067B                   _Keyc1 0040                   _Kscan 05EC  
                 disf@a 0055             ?_AcTestZero 0073          __pbitbssCOMMON 0380                   pclath 000A  
                 status 0003                   wtemp0 007E      __size_of_Ad_sample 0017        __end_of_Disp_Lcd 04F8  
          __end_of_disf 05E7            __end_of_main 07F5      __size_of_Check_Ntc 0031             ?_Ad_testing 0073  
                ??_disf 0055                  ??_main 006B        __end_of_Set_disp 048E              _ScrControl 0098  
   __end_of_Init_System 004F                  ?_Delay 0073                  ?_Kdeal 0073                  ?_Kscan 0073  
          ?_PID_control 0073   __end_of_PID_operation 0409                  _ADCON0 001F                  _ADCON1 009F  
                _ADRESH 001E                  _ADRESL 009E                  _GODONE 00F9                  i1l2001 00AB  
                i1l2012 0076                  i1l4101 00A0                  i1l4111 0000                  i1l4103 0000  
                i1l4113 0000                  i1l4121 0000                  i1l4107 0000                  i1l4131 0000  
                i1l4123 0000                  i1l4115 0000                  i1l4109 0000                  i1l4141 0000  
                i1l4133 0000                  i1l4151 0731                  i1l4143 0707                  i1l4135 0000  
                i1l4127 0000                  i1l4153 0733                  i1l4129 0073                  i1l4075 0000  
                i1l4091 0000                  i1l4155 0000                  i1l4147 0000                  i1l4099 009F  
                i1l1994 00B9                  Delay@i 0056                  Delay@k 0055                  _INTCON 000B  
                u179_25 0720                  _OSCCON 008F                  _TMR2IF 0061                  _TMR2ON 0092  
                _Dcount 007D      __size_of_Isr_Timer 0019                  _Keyold 004F                  ___wmul 004F  
             ??___lwdiv 005E              _Tempr_rank 0044               ??___lwmod 0059                  _count1 004A  
   __size_of_AcTestZero 0012                  clrloop 07F6       __end_of_Ad_sample 0098                  saved_w 007E  
    __size_of_Tmper_pro 003D              _Tmper_temp 0048       __end_of_Check_Ntc 07A6        __end_of_source_v 06FD  
   __size_of_Ad_testing 0075              Tmper_pro@n 0036           __end_of_Delay 00DA           __end_of_Kdeal 06BE  
         __end_of_Kscan 0637          __pcstackCOMMON 0073          _Flag_ntc_onead 0389             _Init_System 0035  
           ?_ScrControl 0073                 ??_Delay 0055                 ??_Kdeal 0055       __end_of_Isr_Timer 0081  
               ??_Kscan 0057               ?_Disp_Lcd 0073              __pbssBANK0 0020            _Flag_temprok 038F  
          _Flag_rt_open 038B          source_v@vtimes 005D               ?_Set_disp 0073            source_v@vmax 0061  
          source_v@vsum 005B              __pmaintext 07D0                 ?___wmul 0055       __end_of_Tmper_pro 073A  
            __pintentry 0004           ?_Temp_setdeal 0073                 _LCDCON0 0190                 _LCDCode 02EC  
            ??_Disp_Lcd 0056    __size_of_PID_control 003B            ??_AcTestZero 0073                 _Adtimes 004C  
               _Flag_HV 0380                 _Flag_en 0383                 _Display 0032                 _Kkg_dly 0050  
   __size_of_ScrControl 0017              ??_Set_disp 0061             _Ntcopendely 0053                 _Temptab 0112  
       __size_of___wmul 0019                 ___lwdiv 07A6                 ___lwmod 0011          ??_Temp_setdeal 0055  
             ?_source_v 0073            ??_Ad_testing 0058             _Tempr_tdata 007B      __end_of_AcTestZero 00C1  
  end_of_initialization 00CC      __end_of_Ad_testing 0590           Ad_sample@adch 0056            __pstringtext 0100  
            ??_source_v 0058               _Ad_sample 0081               _Check_Ntc 0775  __size_of_PID_operation 010D  
             _Flag_keyf 0387               _Flag_step 038D               _Flag_zero 0391            ?_Init_System 0073  
        __end_of___wmul 0068            ??_ScrControl 0073     start_initialization 00C1              ?_Ad_sample 0073  
             _Pid_count 0042               _Isr_Timer 0068    __end_of_Temp_setdeal 067B       __size_of_Disp_Lcd 0063  
            ?_Check_Ntc 0073      __end_of_ScrControl 00AF                ??___wmul 0059       __size_of_Set_disp 0085  
         _Ntcnormaldely 0052               _Tmper_pro 06FD           _Flag_mainloop 0388             __pbssCOMMON 007B  
         __pcstackBANK0 0055    PID_operation@PostSum 0061           _PID_operation 02FC             Ad_testing@i 005A  
            ?_Isr_Timer 0073           _Flag_temprdir 038E           _Flag_rt_short 038C         source_v@vresult 0060  
      ___lwdiv@dividend 005C               __ptext440 06BE               __ptext441 051B               __ptext450 0035  
             __ptext442 0495               __ptext451 0775               __ptext443 0409               __ptext452 0081  
             __ptext444 0011               __ptext453 0598               __ptext445 07A6               __ptext437 073A  
             __ptext454 0068               __ptext446 004F               __ptext438 02FC               __ptext455 06FD  
             __ptext447 00CE               __ptext439 05EC               __ptext456 0098               __ptext448 067B  
             __ptext457 00AF               __ptext449 0637               __ptext458 0000                ?___lwdiv 005A  
              ?___lwmod 0055           _Tempr_setdata 0046              ?_Tmper_pro 0073               __pswtext1 00DA  
     __size_of_source_v 003F          __size_of_Delay 000C           ??_PID_control 0069          __size_of_Kdeal 0043  
        __size_of_Kscan 004B          ?_PID_operation 0073       PID_operation@Temp 0063        ___lwdiv@quotient 005E  
           ??_Ad_sample 0055       interrupt_function 0004             ??_Check_Ntc 0055          ___wmul@product 0059  
     Set_disp@smg_data1 0063       Set_disp@smg_data2 0061       Set_disp@smg_data3 0062             __stringbase 0112  
     ___wmul@multiplier 0055    __size_of_Init_System 001A                _Adresult 003C   __size_of_Temp_setdeal 0044  
              _Flag_ach 0381                _Flag_bit 0382                _Flag_err 0384                _Flag_hot 0386  
              _Disp_Lcd 0495             ??_Isr_Timer 0077                _Maintime 0051     __end_of_PID_control 0775  
              _Keyflash 004E                _Set_disp 0409              Ad_sample@i 0057     PID_operation@NegSum 005F  
      __size_of___lwdiv 002A        __size_of___lwmod 0024            _Temp_setdeal 0637            _Ntcshortdely 0054  
           ??_Tmper_pro 0073         ??_PID_operation 005B         ___lwdiv@divisor 005A         ___lwdiv@counter 0060  
         __size_of_disf 004F           __size_of_main 0025                clear_ram 07F5                _source_v 06BE  
     Ad_testing@Ad_temp 005B             _PID_control 073A                intlevel1 0000               source_v@i 005A  
             source_v@k 005E        ___lwmod@dividend 0057               stringcode 010A         ___lwmod@divisor 0055  
       ___lwmod@counter 0059                stringtab 0100              _AcTestZero 00AF  
